ASxxxx Linker V03.00 + NoICE + sdld,  page 1.
Hexadecimal  [32-Bits]

Area                                    Addr        Size        Decimal Bytes (Attributes)
--------------------------------        ----        ----        ------- ----- ------------
.  .ABS.                            00000000    00000000 =           0. bytes (ABS,CON)

      Value  Global                              Global Defined In Module
      -----  --------------------------------   ------------------------
     00000000  .__.ABS.                           
     00000000  l__CABS                         
     00000000  l__DABS                         
     00000000  l__DATA                         
     00000000  l__GSFINAL                      
     00000000  l__GSINIT                       
     00000000  l__HOME                         
     00000000  l__INITIALIZED                  
     00000000  l__INITIALIZER                  
     00000000  s__CABS                         
     00000000  s__DABS                         
     00000DF1  l__CODE                         
     00004000  s__CODE                         
     00004DF1  s__DATA                         
     00004DF1  s__GSFINAL                      
     00004DF1  s__GSINIT                       
     00004DF1  s__HOME                         
     00004DF1  s__INITIALIZED                  
     00004DF1  s__INITIALIZER                  

ASxxxx Linker V03.00 + NoICE + sdld,  page 2.
Hexadecimal  [32-Bits]

Area                                    Addr        Size        Decimal Bytes (Attributes)
--------------------------------        ----        ----        ------- ----- ------------
_CODE                               00004000    00000DF1 =        3569. bytes (REL,CON)

      Value  Global                              Global Defined In Module
      -----  --------------------------------   ------------------------
     00004000  _initializeRandomGenerators        main
     00004011  _mixedRandomGenerator              main
     00004017  _putpixel                          main
     0000405E  _drawPixelCount                    main
     0000409F  _main                              main
     00004133  _cpct_drawStringM2                 cpct_strings
     00004162  cpct_drawCharM2_inner_asm          cpct_strings
     00004171  cpct_charm2imc                     cpct_strings
     00004188  _cpct_setSeed_lcg_u8               cpct_random
     00004188  cpct_setSeed_lcg_u8_asm            cpct_random
     0000418D  _cpct_setSeed_glfsr16              cpct_random
     0000418D  cpct_setSeed_glfsr16_asm           cpct_random
     00004191  _cpct_getRandom_glfsr16_u16        cpct_random
     00004191  _cpct_getRandom_glfsr16_u8         cpct_random
     00004191  cpct_getRandom_glfsr16_u16_asm     cpct_random
     00004191  cpct_getRandom_glfsr16_u8_asm      cpct_random
     00004192  cpct_randUnif_glfsr16_seed         cpct_random
     0000419D  cpct_randUnif_glfsr16_hightaps     cpct_random
     000041A1  cpct_randUnif_glfsr16_lowtaps      cpct_random
     000041C7  _vsprintf                          sprintf
     000041FC  _sprintf                           sprintf
     00004231  _cpct_getRandom_lcg_u8             cpct_random
     00004231  cpct_getRandom_lcg_u8_asm          cpct_random
     00004232  cpct_randlcgu8_seed                cpct_random
     00004242  _cpct_setTaps_glfsr16              cpct_random
     00004242  cpct_setTaps_glfsr16_asm           cpct_random
     0000424B  _cpct_setVideoMode                 cpct_video
     00004259  _cpct_disableFirmware              cpct_firmware
     00004259  _cpct_removeInterruptHandler       cpct_firmware
     00004259  cpct_disableFirmware_asm           cpct_firmware
     00004259  cpct_removeInterruptHandler_asm    cpct_firmware
     00004269  _cpct_mode_rom_status              cpct_firmware
     0000426A  _cpct_getScreenPtr                 cpct_video
     00004280  _cpct_setDrawCharM2                cpct_strings
     0000439F  __print_format                     printf_large
     00004DE1  ___sdcc_call_hl                    
     00004DE2  _strlen                            

ASxxxx Linker V03.00 + NoICE + sdld,  page 3.

Files Linked                              [ module(s) ]

obj/main.rel                              [ main ]


Libraries Linked                          [ object file ]

/home/oscar/cpctelera/cpctelera/cpctelera.lib
                                          [ cpct_drawStringM2_cbindings.rel ]
/home/oscar/cpctelera/cpctelera/cpctelera.lib
                                          [ cpct_drawCharM2_inner.rel ]
/home/oscar/cpctelera/cpctelera/cpctelera.lib
                                          [ cpct_setSeed_lcg_u8.rel ]
/home/oscar/cpctelera/cpctelera/cpctelera.lib
                                          [ cpct_setSeed_glfsr.rel ]
/home/oscar/cpctelera/cpctelera/cpctelera.lib
                                          [ cpct_getRandom_glfsr.rel ]
/home/oscar/cpctelera/cpctelera/tools/sdcc-3.6.8-r9946/bin/../share/sdcc/lib/z80/z80.lib
                                          [ sprintf.rel ]
/home/oscar/cpctelera/cpctelera/cpctelera.lib
                                          [ cpct_getRandom_lcg_u8.rel ]
/home/oscar/cpctelera/cpctelera/cpctelera.lib
                                          [ cpct_setTaps_glfsr.rel ]
/home/oscar/cpctelera/cpctelera/cpctelera.lib
                                          [ cpct_setVideoMode_cbindings.rel ]
/home/oscar/cpctelera/cpctelera/cpctelera.lib
                                          [ cpct_removeInterruptHandler.rel ]
/home/oscar/cpctelera/cpctelera/cpctelera.lib
                                          [ cpc_mode_rom_status.rel ]
/home/oscar/cpctelera/cpctelera/cpctelera.lib
                                          [ cpct_getScreenPtr_cbindings.rel ]
/home/oscar/cpctelera/cpctelera/cpctelera.lib
                                          [ cpct_setDrawCharM2_cbindings.rel ]
/home/oscar/cpctelera/cpctelera/tools/sdcc-3.6.8-r9946/bin/../share/sdcc/lib/z80/z80.lib
                                          [ printf_large.rel ]
/home/oscar/cpctelera/cpctelera/tools/sdcc-3.6.8-r9946/bin/../share/sdcc/lib/z80/z80.lib
                                          [ __sdcc_call_hl.rel ]
/home/oscar/cpctelera/cpctelera/tools/sdcc-3.6.8-r9946/bin/../share/sdcc/lib/z80/z80.lib
                                          [ strlen.rel ]

ASxxxx Linker V03.00 + NoICE + sdld,  page 4.

User Base Address Definitions

_CODE = 0x4000
_DATA = 0x0000

