                              1 ;--------------------------------------------------------
                              2 ; File Created by SDCC : free open source ANSI-C Compiler
                              3 ; Version 3.6.8 #9946 (Linux)
                              4 ;--------------------------------------------------------
                              5 	.module main
                              6 	.optsdcc -mz80
                              7 	
                              8 ;--------------------------------------------------------
                              9 ; Public variables in this module
                             10 ;--------------------------------------------------------
                             11 	.globl _main
                             12 	.globl _initialization
                             13 	.globl _repaintBackgroundOverSprite
                             14 	.globl _drawBackground
                             15 	.globl _drawFrame
                             16 	.globl _cpct_getScreenPtr
                             17 	.globl _cpct_setPALColour
                             18 	.globl _cpct_setPalette
                             19 	.globl _cpct_fw2hw
                             20 	.globl _cpct_waitVSYNC
                             21 	.globl _cpct_setVideoMode
                             22 	.globl _cpct_drawSpriteMasked
                             23 	.globl _cpct_drawSolidBox
                             24 	.globl _cpct_px2byteM0
                             25 	.globl _cpct_drawTileAligned4x8_f
                             26 	.globl _cpct_disableFirmware
                             27 ;--------------------------------------------------------
                             28 ; special function registers
                             29 ;--------------------------------------------------------
                             30 ;--------------------------------------------------------
                             31 ; ram data
                             32 ;--------------------------------------------------------
                             33 	.area _DATA
                             34 ;--------------------------------------------------------
                             35 ; ram data
                             36 ;--------------------------------------------------------
                             37 	.area _INITIALIZED
                             38 ;--------------------------------------------------------
                             39 ; absolute external ram data
                             40 ;--------------------------------------------------------
                             41 	.area _DABS (ABS)
                             42 ;--------------------------------------------------------
                             43 ; global & static initialisations
                             44 ;--------------------------------------------------------
                             45 	.area _HOME
                             46 	.area _GSINIT
                             47 	.area _GSFINAL
                             48 	.area _GSINIT
                             49 ;--------------------------------------------------------
                             50 ; Home
                             51 ;--------------------------------------------------------
                             52 	.area _HOME
                             53 	.area _HOME
                             54 ;--------------------------------------------------------
                             55 ; code
                             56 ;--------------------------------------------------------
                             57 	.area _CODE
                             58 ;src/main.c:41: void drawFrame() {
                             59 ;	---------------------------------
                             60 ; Function drawFrame
                             61 ; ---------------------------------
   0000                      62 _drawFrame::
                             63 ;src/main.c:46: pattern = cpct_px2byteM0 (15, 15);
   0000 21 0F 0F      [10]   64 	ld	hl, #0x0f0f
   0003 E5            [11]   65 	push	hl
   0004 CDr00r00      [17]   66 	call	_cpct_px2byteM0
   0007 4D            [ 4]   67 	ld	c, l
                             68 ;src/main.c:49: pvmem = cpct_getScreenPtr(CPCT_VMEM_START, (BACK_X),  (BACK_Y - 8) );
   0008 C5            [11]   69 	push	bc
   0009 21 0C 40      [10]   70 	ld	hl, #0x400c
   000C E5            [11]   71 	push	hl
   000D 21 00 C0      [10]   72 	ld	hl, #0xc000
   0010 E5            [11]   73 	push	hl
   0011 CDr00r00      [17]   74 	call	_cpct_getScreenPtr
   0014 C1            [10]   75 	pop	bc
                             76 ;src/main.c:50: cpct_drawSolidBox(pvmem, pattern, 4*BACK_W,  8);
   0015 06 00         [ 7]   77 	ld	b, #0x00
   0017 C5            [11]   78 	push	bc
   0018 11 38 08      [10]   79 	ld	de, #0x0838
   001B D5            [11]   80 	push	de
   001C C5            [11]   81 	push	bc
   001D E5            [11]   82 	push	hl
   001E CDr00r00      [17]   83 	call	_cpct_drawSolidBox
   0021 21 0C 78      [10]   84 	ld	hl, #0x780c
   0024 E5            [11]   85 	push	hl
   0025 21 00 C0      [10]   86 	ld	hl, #0xc000
   0028 E5            [11]   87 	push	hl
   0029 CDr00r00      [17]   88 	call	_cpct_getScreenPtr
   002C C1            [10]   89 	pop	bc
                             90 ;src/main.c:54: cpct_drawSolidBox(pvmem, pattern, 4*BACK_W,  8);
   002D C5            [11]   91 	push	bc
   002E 11 38 08      [10]   92 	ld	de, #0x0838
   0031 D5            [11]   93 	push	de
   0032 C5            [11]   94 	push	bc
   0033 E5            [11]   95 	push	hl
   0034 CDr00r00      [17]   96 	call	_cpct_drawSolidBox
   0037 21 08 40      [10]   97 	ld	hl, #0x4008
   003A E5            [11]   98 	push	hl
   003B 21 00 C0      [10]   99 	ld	hl, #0xc000
   003E E5            [11]  100 	push	hl
   003F CDr00r00      [17]  101 	call	_cpct_getScreenPtr
   0042 C1            [10]  102 	pop	bc
                            103 ;src/main.c:58: cpct_drawSolidBox(pvmem, pattern,  4, 8*(BACK_H + 2) );
   0043 C5            [11]  104 	push	bc
   0044 11 04 40      [10]  105 	ld	de, #0x4004
   0047 D5            [11]  106 	push	de
   0048 C5            [11]  107 	push	bc
   0049 E5            [11]  108 	push	hl
   004A CDr00r00      [17]  109 	call	_cpct_drawSolidBox
   004D 21 44 40      [10]  110 	ld	hl, #0x4044
   0050 E5            [11]  111 	push	hl
   0051 21 00 C0      [10]  112 	ld	hl, #0xc000
   0054 E5            [11]  113 	push	hl
   0055 CDr00r00      [17]  114 	call	_cpct_getScreenPtr
   0058 C1            [10]  115 	pop	bc
                            116 ;src/main.c:62: cpct_drawSolidBox(pvmem, pattern,  4, 8*(BACK_H + 2) );
   0059 11 04 40      [10]  117 	ld	de, #0x4004
   005C D5            [11]  118 	push	de
   005D C5            [11]  119 	push	bc
   005E E5            [11]  120 	push	hl
   005F CDr00r00      [17]  121 	call	_cpct_drawSolidBox
   0062 C9            [10]  122 	ret
                            123 ;src/main.c:70: void drawBackground() {
                            124 ;	---------------------------------
                            125 ; Function drawBackground
                            126 ; ---------------------------------
   0063                     127 _drawBackground::
   0063 DD E5         [15]  128 	push	ix
   0065 DD 21 00 00   [14]  129 	ld	ix,#0
   0069 DD 39         [15]  130 	add	ix,sp
   006B 3B            [ 6]  131 	dec	sp
                            132 ;src/main.c:77: for (y=0; y < BACK_H; ++y) {     
   006C 0E 00         [ 7]  133 	ld	c, #0x00
   006E                     134 00105$:
                            135 ;src/main.c:82: pvideomem = cpct_getScreenPtr(CPCT_VMEM_START, BACK_X, BACK_Y + 8*y);
   006E 79            [ 4]  136 	ld	a, c
   006F 07            [ 4]  137 	rlca
   0070 07            [ 4]  138 	rlca
   0071 07            [ 4]  139 	rlca
   0072 E6 F8         [ 7]  140 	and	a, #0xf8
   0074 C6 48         [ 7]  141 	add	a, #0x48
   0076 47            [ 4]  142 	ld	b, a
   0077 C5            [11]  143 	push	bc
   0078 C5            [11]  144 	push	bc
   0079 33            [ 6]  145 	inc	sp
   007A 3E 0C         [ 7]  146 	ld	a, #0x0c
   007C F5            [11]  147 	push	af
   007D 33            [ 6]  148 	inc	sp
   007E 21 00 C0      [10]  149 	ld	hl, #0xc000
   0081 E5            [11]  150 	push	hl
   0082 CDr00r00      [17]  151 	call	_cpct_getScreenPtr
   0085 EB            [ 4]  152 	ex	de,hl
   0086 C1            [10]  153 	pop	bc
                            154 ;src/main.c:85: for(x=0; x < BACK_W; ++x) {
   0087 79            [ 4]  155 	ld	a, c
   0088 0F            [ 4]  156 	rrca
   0089 0F            [ 4]  157 	rrca
   008A 0F            [ 4]  158 	rrca
   008B E6 E0         [ 7]  159 	and	a, #0xe0
   008D DD 77 FF      [19]  160 	ld	-1 (ix), a
   0090 06 00         [ 7]  161 	ld	b, #0x00
   0092                     162 00103$:
                            163 ;src/main.c:86: cpct_drawTileAligned4x8_f(G_background[x][y], pvideomem);  // Draw next tile
   0092 D5            [11]  164 	push	de
   0093 FD E1         [14]  165 	pop	iy
   0095 D5            [11]  166 	push	de
   0096 58            [ 4]  167 	ld	e,b
   0097 16 00         [ 7]  168 	ld	d,#0x00
   0099 6B            [ 4]  169 	ld	l, e
   009A 62            [ 4]  170 	ld	h, d
   009B 29            [11]  171 	add	hl, hl
   009C 19            [11]  172 	add	hl, de
   009D 29            [11]  173 	add	hl, hl
   009E 29            [11]  174 	add	hl, hl
   009F 29            [11]  175 	add	hl, hl
   00A0 29            [11]  176 	add	hl, hl
   00A1 29            [11]  177 	add	hl, hl
   00A2 29            [11]  178 	add	hl, hl
   00A3 D1            [10]  179 	pop	de
   00A4 3Er00         [ 7]  180 	ld	a, #<(_G_background)
   00A6 85            [ 4]  181 	add	a, l
   00A7 6F            [ 4]  182 	ld	l, a
   00A8 3Es00         [ 7]  183 	ld	a, #>(_G_background)
   00AA 8C            [ 4]  184 	adc	a, h
   00AB 67            [ 4]  185 	ld	h, a
   00AC DD 7E FF      [19]  186 	ld	a, -1 (ix)
   00AF 85            [ 4]  187 	add	a, l
   00B0 6F            [ 4]  188 	ld	l, a
   00B1 3E 00         [ 7]  189 	ld	a, #0x00
   00B3 8C            [ 4]  190 	adc	a, h
   00B4 67            [ 4]  191 	ld	h, a
   00B5 C5            [11]  192 	push	bc
   00B6 D5            [11]  193 	push	de
   00B7 FD E5         [15]  194 	push	iy
   00B9 E5            [11]  195 	push	hl
   00BA CDr00r00      [17]  196 	call	_cpct_drawTileAligned4x8_f
   00BD D1            [10]  197 	pop	de
   00BE C1            [10]  198 	pop	bc
                            199 ;src/main.c:90: pvideomem += 4;  
   00BF 13            [ 6]  200 	inc	de
   00C0 13            [ 6]  201 	inc	de
   00C1 13            [ 6]  202 	inc	de
   00C2 13            [ 6]  203 	inc	de
                            204 ;src/main.c:85: for(x=0; x < BACK_W; ++x) {
   00C3 04            [ 4]  205 	inc	b
   00C4 78            [ 4]  206 	ld	a, b
   00C5 D6 0E         [ 7]  207 	sub	a, #0x0e
   00C7 38 C9         [12]  208 	jr	C,00103$
                            209 ;src/main.c:77: for (y=0; y < BACK_H; ++y) {     
   00C9 0C            [ 4]  210 	inc	c
   00CA 79            [ 4]  211 	ld	a, c
   00CB D6 06         [ 7]  212 	sub	a, #0x06
   00CD 38 9F         [12]  213 	jr	C,00105$
   00CF 33            [ 6]  214 	inc	sp
   00D0 DD E1         [14]  215 	pop	ix
   00D2 C9            [10]  216 	ret
                            217 ;src/main.c:101: void repaintBackgroundOverSprite(u8 x, u8 y) {
                            218 ;	---------------------------------
                            219 ; Function repaintBackgroundOverSprite
                            220 ; ---------------------------------
   00D3                     221 _repaintBackgroundOverSprite::
   00D3 DD E5         [15]  222 	push	ix
   00D5 DD 21 00 00   [14]  223 	ld	ix,#0
   00D9 DD 39         [15]  224 	add	ix,sp
   00DB 21 F7 FF      [10]  225 	ld	hl, #-9
   00DE 39            [11]  226 	add	hl, sp
   00DF F9            [ 6]  227 	ld	sp, hl
                            228 ;src/main.c:106: u8 tilex = (x - BACK_X) / 4;   // Calculate tile column into the tile array (integer division, 4 bytes per tile)
   00E0 DD 4E 04      [19]  229 	ld	c, 4 (ix)
   00E3 06 00         [ 7]  230 	ld	b, #0x00
   00E5 79            [ 4]  231 	ld	a, c
   00E6 C6 F4         [ 7]  232 	add	a, #0xf4
   00E8 5F            [ 4]  233 	ld	e, a
   00E9 78            [ 4]  234 	ld	a, b
   00EA CE FF         [ 7]  235 	adc	a, #0xff
   00EC 57            [ 4]  236 	ld	d, a
   00ED 6B            [ 4]  237 	ld	l, e
   00EE 62            [ 4]  238 	ld	h, d
   00EF CB 7A         [ 8]  239 	bit	7, d
   00F1 28 04         [12]  240 	jr	Z,00103$
   00F3 21 F7 FF      [10]  241 	ld	hl, #0xfff7
   00F6 09            [11]  242 	add	hl, bc
   00F7                     243 00103$:
   00F7 CB 2C         [ 8]  244 	sra	h
   00F9 CB 1D         [ 8]  245 	rr	l
   00FB CB 2C         [ 8]  246 	sra	h
   00FD CB 1D         [ 8]  247 	rr	l
   00FF DD 75 F8      [19]  248 	ld	-8 (ix), l
                            249 ;src/main.c:107: u8 tiley = (y - BACK_Y) / 8;   // Calculate tile row into the tile array (integer division, 8 bytes per tile)
   0102 DD 4E 05      [19]  250 	ld	c, 5 (ix)
   0105 06 00         [ 7]  251 	ld	b, #0x00
   0107 79            [ 4]  252 	ld	a, c
   0108 C6 B8         [ 7]  253 	add	a, #0xb8
   010A 5F            [ 4]  254 	ld	e, a
   010B 78            [ 4]  255 	ld	a, b
   010C CE FF         [ 7]  256 	adc	a, #0xff
   010E 57            [ 4]  257 	ld	d, a
   010F 6B            [ 4]  258 	ld	l, e
   0110 62            [ 4]  259 	ld	h, d
   0111 CB 7A         [ 8]  260 	bit	7, d
   0113 28 04         [12]  261 	jr	Z,00104$
   0115 21 BF FF      [10]  262 	ld	hl, #0xffbf
   0118 09            [11]  263 	add	hl, bc
   0119                     264 00104$:
   0119 CB 2C         [ 8]  265 	sra	h
   011B CB 1D         [ 8]  266 	rr	l
   011D CB 2C         [ 8]  267 	sra	h
   011F CB 1D         [ 8]  268 	rr	l
   0121 CB 2C         [ 8]  269 	sra	h
   0123 CB 1D         [ 8]  270 	rr	l
   0125 DD 75 F7      [19]  271 	ld	-9 (ix), l
                            272 ;src/main.c:108: u8 scrx = BACK_X + 4*tilex;    // Calculate x screen byte coordinate of the tile
   0128 DD 7E F8      [19]  273 	ld	a, -8 (ix)
   012B 87            [ 4]  274 	add	a, a
   012C 87            [ 4]  275 	add	a, a
   012D C6 0C         [ 7]  276 	add	a, #0x0c
   012F DD 77 F9      [19]  277 	ld	-7 (ix), a
                            278 ;src/main.c:109: u8 scry = BACK_Y + 8*tiley;    // Calculate y screen byte coordinate of the tile
   0132 DD 7E F7      [19]  279 	ld	a, -9 (ix)
   0135 07            [ 4]  280 	rlca
   0136 07            [ 4]  281 	rlca
   0137 07            [ 4]  282 	rlca
   0138 E6 F8         [ 7]  283 	and	a, #0xf8
   013A C6 48         [ 7]  284 	add	a, #0x48
                            285 ;src/main.c:116: pvmem = cpct_getScreenPtr(CPCT_VMEM_START, scrx, scry);
   013C DD 77 FA      [19]  286 	ld	-6 (ix), a
   013F F5            [11]  287 	push	af
   0140 33            [ 6]  288 	inc	sp
   0141 DD 7E F9      [19]  289 	ld	a, -7 (ix)
   0144 F5            [11]  290 	push	af
   0145 33            [ 6]  291 	inc	sp
   0146 21 00 C0      [10]  292 	ld	hl, #0xc000
   0149 E5            [11]  293 	push	hl
   014A CDr00r00      [17]  294 	call	_cpct_getScreenPtr
   014D EB            [ 4]  295 	ex	de,hl
                            296 ;src/main.c:117: cpct_drawTileAligned4x8_f(G_background[tilex  ][tiley], pvmem    );
   014E 4B            [ 4]  297 	ld	c, e
   014F 42            [ 4]  298 	ld	b, d
   0150 D5            [11]  299 	push	de
   0151 DD 5E F8      [19]  300 	ld	e,-8 (ix)
   0154 16 00         [ 7]  301 	ld	d,#0x00
   0156 6B            [ 4]  302 	ld	l, e
   0157 62            [ 4]  303 	ld	h, d
   0158 29            [11]  304 	add	hl, hl
   0159 19            [11]  305 	add	hl, de
   015A 29            [11]  306 	add	hl, hl
   015B 29            [11]  307 	add	hl, hl
   015C 29            [11]  308 	add	hl, hl
   015D 29            [11]  309 	add	hl, hl
   015E 29            [11]  310 	add	hl, hl
   015F 29            [11]  311 	add	hl, hl
   0160 D1            [10]  312 	pop	de
   0161 3Er00         [ 7]  313 	ld	a, #<(_G_background)
   0163 85            [ 4]  314 	add	a, l
   0164 DD 77 FE      [19]  315 	ld	-2 (ix), a
   0167 3Es00         [ 7]  316 	ld	a, #>(_G_background)
   0169 8C            [ 4]  317 	adc	a, h
   016A DD 77 FF      [19]  318 	ld	-1 (ix), a
   016D DD 7E F7      [19]  319 	ld	a, -9 (ix)
   0170 0F            [ 4]  320 	rrca
   0171 0F            [ 4]  321 	rrca
   0172 0F            [ 4]  322 	rrca
   0173 E6 E0         [ 7]  323 	and	a, #0xe0
   0175 DD 77 FB      [19]  324 	ld	-5 (ix), a
   0178 DD 7E FE      [19]  325 	ld	a, -2 (ix)
   017B DD 86 FB      [19]  326 	add	a, -5 (ix)
   017E 6F            [ 4]  327 	ld	l, a
   017F DD 7E FF      [19]  328 	ld	a, -1 (ix)
   0182 CE 00         [ 7]  329 	adc	a, #0x00
   0184 67            [ 4]  330 	ld	h, a
   0185 D5            [11]  331 	push	de
   0186 C5            [11]  332 	push	bc
   0187 E5            [11]  333 	push	hl
   0188 CDr00r00      [17]  334 	call	_cpct_drawTileAligned4x8_f
   018B D1            [10]  335 	pop	de
                            336 ;src/main.c:118: cpct_drawTileAligned4x8_f(G_background[tilex+1][tiley], pvmem + 4);
   018C 13            [ 6]  337 	inc	de
   018D 13            [ 6]  338 	inc	de
   018E 13            [ 6]  339 	inc	de
   018F 13            [ 6]  340 	inc	de
   0190 DD 4E F8      [19]  341 	ld	c, -8 (ix)
   0193 06 00         [ 7]  342 	ld	b, #0x00
   0195 03            [ 6]  343 	inc	bc
   0196 69            [ 4]  344 	ld	l, c
   0197 60            [ 4]  345 	ld	h, b
   0198 29            [11]  346 	add	hl, hl
   0199 09            [11]  347 	add	hl, bc
   019A 29            [11]  348 	add	hl, hl
   019B 29            [11]  349 	add	hl, hl
   019C 29            [11]  350 	add	hl, hl
   019D 29            [11]  351 	add	hl, hl
   019E 29            [11]  352 	add	hl, hl
   019F 29            [11]  353 	add	hl, hl
   01A0 01r00r00      [10]  354 	ld	bc,#_G_background
   01A3 09            [11]  355 	add	hl,bc
   01A4 DD 75 FC      [19]  356 	ld	-4 (ix), l
   01A7 DD 74 FD      [19]  357 	ld	-3 (ix), h
   01AA DD 7E FB      [19]  358 	ld	a, -5 (ix)
   01AD DD 86 FC      [19]  359 	add	a, -4 (ix)
   01B0 4F            [ 4]  360 	ld	c, a
   01B1 3E 00         [ 7]  361 	ld	a, #0x00
   01B3 DD 8E FD      [19]  362 	adc	a, -3 (ix)
   01B6 47            [ 4]  363 	ld	b, a
   01B7 D5            [11]  364 	push	de
   01B8 C5            [11]  365 	push	bc
   01B9 CDr00r00      [17]  366 	call	_cpct_drawTileAligned4x8_f
                            367 ;src/main.c:119: pvmem = cpct_getScreenPtr(CPCT_VMEM_START, scrx, scry + 8);
   01BC DD 7E FA      [19]  368 	ld	a, -6 (ix)
   01BF C6 08         [ 7]  369 	add	a, #0x08
   01C1 47            [ 4]  370 	ld	b, a
   01C2 C5            [11]  371 	push	bc
   01C3 33            [ 6]  372 	inc	sp
   01C4 DD 7E F9      [19]  373 	ld	a, -7 (ix)
   01C7 F5            [11]  374 	push	af
   01C8 33            [ 6]  375 	inc	sp
   01C9 21 00 C0      [10]  376 	ld	hl, #0xc000
   01CC E5            [11]  377 	push	hl
   01CD CDr00r00      [17]  378 	call	_cpct_getScreenPtr
                            379 ;src/main.c:120: cpct_drawTileAligned4x8_f(G_background[tilex  ][tiley+1], pvmem    );
   01D0 5D            [ 4]  380 	ld	e, l
   01D1 54            [ 4]  381 	ld	d, h
   01D2 DD 7E F7      [19]  382 	ld	a, -9 (ix)
   01D5 3C            [ 4]  383 	inc	a
   01D6 0F            [ 4]  384 	rrca
   01D7 0F            [ 4]  385 	rrca
   01D8 0F            [ 4]  386 	rrca
   01D9 E6 E0         [ 7]  387 	and	a, #0xe0
   01DB DD 77 FB      [19]  388 	ld	-5 (ix), a
   01DE DD 7E FE      [19]  389 	ld	a, -2 (ix)
   01E1 DD 86 FB      [19]  390 	add	a, -5 (ix)
   01E4 4F            [ 4]  391 	ld	c, a
   01E5 DD 7E FF      [19]  392 	ld	a, -1 (ix)
   01E8 CE 00         [ 7]  393 	adc	a, #0x00
   01EA 47            [ 4]  394 	ld	b, a
   01EB E5            [11]  395 	push	hl
   01EC D5            [11]  396 	push	de
   01ED C5            [11]  397 	push	bc
   01EE CDr00r00      [17]  398 	call	_cpct_drawTileAligned4x8_f
   01F1 E1            [10]  399 	pop	hl
                            400 ;src/main.c:121: cpct_drawTileAligned4x8_f(G_background[tilex+1][tiley+1], pvmem + 4);
   01F2 01 04 00      [10]  401 	ld	bc, #0x0004
   01F5 09            [11]  402 	add	hl, bc
   01F6 DD 7E FB      [19]  403 	ld	a, -5 (ix)
   01F9 DD 86 FC      [19]  404 	add	a, -4 (ix)
   01FC 4F            [ 4]  405 	ld	c, a
   01FD 3E 00         [ 7]  406 	ld	a, #0x00
   01FF DD 8E FD      [19]  407 	adc	a, -3 (ix)
   0202 47            [ 4]  408 	ld	b, a
   0203 E5            [11]  409 	push	hl
   0204 C5            [11]  410 	push	bc
   0205 CDr00r00      [17]  411 	call	_cpct_drawTileAligned4x8_f
   0208 DD F9         [10]  412 	ld	sp, ix
   020A DD E1         [14]  413 	pop	ix
   020C C9            [10]  414 	ret
                            415 ;src/main.c:129: void initialization (){ 
                            416 ;	---------------------------------
                            417 ; Function initialization
                            418 ; ---------------------------------
   020D                     419 _initialization::
                            420 ;src/main.c:130: cpct_disableFirmware();          // Disable firmware to prevent it from interfering
   020D CDr00r00      [17]  421 	call	_cpct_disableFirmware
                            422 ;src/main.c:131: cpct_fw2hw     (G_palette, 16);  // Convert firmware colours to hardware colours 
   0210 21 10 00      [10]  423 	ld	hl, #0x0010
   0213 E5            [11]  424 	push	hl
   0214 21r00r00      [10]  425 	ld	hl, #_G_palette
   0217 E5            [11]  426 	push	hl
   0218 CDr00r00      [17]  427 	call	_cpct_fw2hw
                            428 ;src/main.c:132: cpct_setPalette(G_palette, 16);  // Set palette using hardware colour values
   021B 21 10 00      [10]  429 	ld	hl, #0x0010
   021E E5            [11]  430 	push	hl
   021F 21r00r00      [10]  431 	ld	hl, #_G_palette
   0222 E5            [11]  432 	push	hl
   0223 CDr00r00      [17]  433 	call	_cpct_setPalette
                            434 ;src/main.c:133: cpct_setBorder (G_palette[0]);   // Set border colour same as background (0)
   0226 21r00r00      [10]  435 	ld	hl, #_G_palette + 0
   0229 46            [ 7]  436 	ld	b, (hl)
   022A C5            [11]  437 	push	bc
   022B 33            [ 6]  438 	inc	sp
   022C 3E 10         [ 7]  439 	ld	a, #0x10
   022E F5            [11]  440 	push	af
   022F 33            [ 6]  441 	inc	sp
   0230 CDr00r00      [17]  442 	call	_cpct_setPALColour
                            443 ;src/main.c:134: cpct_setVideoMode(0);            // Change to Mode 0 (160x200, 16 colours)
   0233 2E 00         [ 7]  444 	ld	l, #0x00
   0235 CDr00r00      [17]  445 	call	_cpct_setVideoMode
                            446 ;src/main.c:136: drawFrame();       // Draw a Frame around the "play zone"
   0238 CDr00r00      [17]  447 	call	_drawFrame
                            448 ;src/main.c:137: drawBackground();  // Draw the tiled background
   023B CDr63r00      [17]  449 	call	_drawBackground
   023E C9            [10]  450 	ret
                            451 ;src/main.c:140: void main(void) {
                            452 ;	---------------------------------
                            453 ; Function main
                            454 ; ---------------------------------
   023F                     455 _main::
                            456 ;src/main.c:141: u8 x=BACK_X+1;   // x byte screen coord. of the sprite (1 byte to the right of the start of the "play zone")
                            457 ;src/main.c:143: i8 vx=1;         // Horizontal movement velocity in bytes (1 byte to the right)
   023F 01 01 0D      [10]  458 	ld	bc,#0x0d01
                            459 ;src/main.c:148: initialization();
   0242 C5            [11]  460 	push	bc
   0243 CDr0Dr02      [17]  461 	call	_initialization
   0246 C1            [10]  462 	pop	bc
                            463 ;src/main.c:153: while(1) {
   0247                     464 00106$:
                            465 ;src/main.c:157: pvmem = cpct_getScreenPtr(CPCT_VMEM_START, x, y);      
   0247 C5            [11]  466 	push	bc
   0248 3E 68         [ 7]  467 	ld	a, #0x68
   024A F5            [11]  468 	push	af
   024B 33            [ 6]  469 	inc	sp
   024C C5            [11]  470 	push	bc
   024D 33            [ 6]  471 	inc	sp
   024E 21 00 C0      [10]  472 	ld	hl, #0xc000
   0251 E5            [11]  473 	push	hl
   0252 CDr00r00      [17]  474 	call	_cpct_getScreenPtr
   0255 EB            [ 4]  475 	ex	de,hl
   0256 21 04 10      [10]  476 	ld	hl, #0x1004
   0259 E5            [11]  477 	push	hl
   025A D5            [11]  478 	push	de
   025B 21r00r00      [10]  479 	ld	hl, #_G_sprite_EMR
   025E E5            [11]  480 	push	hl
   025F CDr00r00      [17]  481 	call	_cpct_drawSpriteMasked
   0262 C1            [10]  482 	pop	bc
                            483 ;src/main.c:160: for(i=0; i < WAITLOOPS; i++); // Wait for a little while
   0263 11 A0 0F      [10]  484 	ld	de, #0x0fa0
   0266                     485 00110$:
   0266 EB            [ 4]  486 	ex	de,hl
   0267 2B            [ 6]  487 	dec	hl
   0268 5D            [ 4]  488 	ld	e, l
   0269 7C            [ 4]  489 	ld	a,h
   026A 57            [ 4]  490 	ld	d,a
   026B B5            [ 4]  491 	or	a,l
   026C 20 F8         [12]  492 	jr	NZ,00110$
                            493 ;src/main.c:161: cpct_waitVSYNC();             // Synchronize with VSYNC to prevent flickering
   026E C5            [11]  494 	push	bc
   026F CDr00r00      [17]  495 	call	_cpct_waitVSYNC
   0272 C1            [10]  496 	pop	bc
                            497 ;src/main.c:163: repaintBackgroundOverSprite(x, y); // Repaint the background only where the sprite is located
   0273 C5            [11]  498 	push	bc
   0274 3E 68         [ 7]  499 	ld	a, #0x68
   0276 F5            [11]  500 	push	af
   0277 33            [ 6]  501 	inc	sp
   0278 C5            [11]  502 	push	bc
   0279 33            [ 6]  503 	inc	sp
   027A CDrD3r00      [17]  504 	call	_repaintBackgroundOverSprite
   027D F1            [10]  505 	pop	af
   027E C1            [10]  506 	pop	bc
                            507 ;src/main.c:166: x += vx;
   027F 78            [ 4]  508 	ld	a, b
   0280 81            [ 4]  509 	add	a, c
                            510 ;src/main.c:170: if (x < BACK_X || x > (BACK_X + 4*BACK_W-5) ) {
   0281 47            [ 4]  511 	ld	b,a
   0282 D6 0C         [ 7]  512 	sub	a, #0x0c
   0284 38 05         [12]  513 	jr	C,00102$
   0286 3E 3F         [ 7]  514 	ld	a, #0x3f
   0288 90            [ 4]  515 	sub	a, b
   0289 30 BC         [12]  516 	jr	NC,00106$
   028B                     517 00102$:
                            518 ;src/main.c:171: x -= vx;    // Undo latest movement subtracting vx from current x position
   028B 78            [ 4]  519 	ld	a, b
   028C 91            [ 4]  520 	sub	a, c
   028D 47            [ 4]  521 	ld	b, a
                            522 ;src/main.c:172: vx = -vx;   // Change the sense of velocity to start moving opposite
   028E AF            [ 4]  523 	xor	a, a
   028F 91            [ 4]  524 	sub	a, c
   0290 4F            [ 4]  525 	ld	c, a
   0291 18 B4         [12]  526 	jr	00106$
                            527 	.area _CODE
                            528 	.area _INITIALIZER
                            529 	.area _CABS (ABS)
