                              1 ;--------------------------------------------------------
                              2 ; File Created by SDCC : free open source ANSI-C Compiler
                              3 ; Version 3.6.8 #9946 (Linux)
                              4 ;--------------------------------------------------------
                              5 	.module main
                              6 	.optsdcc -mz80
                              7 	
                              8 ;--------------------------------------------------------
                              9 ; Public variables in this module
                             10 ;--------------------------------------------------------
                             11 	.globl _main
                             12 	.globl _cpct_getScreenPtr
                             13 	.globl _cpct_drawStringM1
                             14 	.globl _cpct_setDrawCharM1
                             15 	.globl _cpct_drawSolidBox
                             16 	.globl _cpct_px2byteM1
                             17 	.globl _cpct_pageMemory
                             18 	.globl _cpct_memset
                             19 ;--------------------------------------------------------
                             20 ; special function registers
                             21 ;--------------------------------------------------------
                             22 ;--------------------------------------------------------
                             23 ; ram data
                             24 ;--------------------------------------------------------
                             25 	.area _DATA
                             26 ;--------------------------------------------------------
                             27 ; ram data
                             28 ;--------------------------------------------------------
                             29 	.area _INITIALIZED
                             30 ;--------------------------------------------------------
                             31 ; absolute external ram data
                             32 ;--------------------------------------------------------
                             33 	.area _DABS (ABS)
                             34 ;--------------------------------------------------------
                             35 ; global & static initialisations
                             36 ;--------------------------------------------------------
                             37 	.area _HOME
                             38 	.area _GSINIT
                             39 	.area _GSFINAL
                             40 	.area _GSINIT
                             41 ;--------------------------------------------------------
                             42 ; Home
                             43 ;--------------------------------------------------------
                             44 	.area _HOME
                             45 	.area _HOME
                             46 ;--------------------------------------------------------
                             47 ; code
                             48 ;--------------------------------------------------------
                             49 	.area _CODE
                             50 ;src/main.c:23: void main(void) {
                             51 ;	---------------------------------
                             52 ; Function main
                             53 ; ---------------------------------
   0000                      54 _main::
                             55 ;src/main.c:28: cpct_pageMemory(RAMCFG_0 | BANK_0);				// Not needed, sets the memory with the first 64kb accesible, in consecutive banks.
   0000 2E 00         [ 7]   56 	ld	l, #0x00
   0002 CDr00r00      [17]   57 	call	_cpct_pageMemory
                             58 ;src/main.c:31: *firstByteInPage = cpct_px2byteM1(1, 1, 1, 1);	// Set the first byte in page to all pixels with colour 1 (yellow by default).
   0005 21 01 01      [10]   59 	ld	hl, #0x0101
   0008 E5            [11]   60 	push	hl
   0009 2E 01         [ 7]   61 	ld	l, #0x01
   000B E5            [11]   62 	push	hl
   000C CDr00r00      [17]   63 	call	_cpct_px2byteM1
   000F F1            [10]   64 	pop	af
   0010 F1            [10]   65 	pop	af
   0011 4D            [ 4]   66 	ld	c, l
   0012 21 00 40      [10]   67 	ld	hl, #0x4000
   0015 71            [ 7]   68 	ld	(hl), c
                             69 ;src/main.c:33: cpct_pageMemory(RAMCFG_4 | BANK_0);				// Set the 4th page (64kb to 80kb) in 0x4000-0x7FFF
   0016 2E 04         [ 7]   70 	ld	l, #0x04
   0018 CDr00r00      [17]   71 	call	_cpct_pageMemory
                             72 ;src/main.c:38: *firstByteInPage = cpct_px2byteM1(2, 2, 2, 2);	// Set the first byte in page to all pixels with colour 2 (cyan by default ).
   001B 21 02 02      [10]   73 	ld	hl, #0x0202
   001E E5            [11]   74 	push	hl
   001F 2E 02         [ 7]   75 	ld	l, #0x02
   0021 E5            [11]   76 	push	hl
   0022 CDr00r00      [17]   77 	call	_cpct_px2byteM1
   0025 F1            [10]   78 	pop	af
   0026 F1            [10]   79 	pop	af
   0027 4D            [ 4]   80 	ld	c, l
   0028 21 00 40      [10]   81 	ld	hl, #0x4000
   002B 71            [ 7]   82 	ld	(hl), c
                             83 ;src/main.c:40: cpct_pageMemory(RAMCFG_5 | BANK_0);				// Set the 4th page (64kb to 80kb) in 0x4000-0x7FFF
   002C 2E 05         [ 7]   84 	ld	l, #0x05
   002E CDr00r00      [17]   85 	call	_cpct_pageMemory
                             86 ;src/main.c:45: *firstByteInPage = cpct_px2byteM1(3, 3, 3, 3);	// Set the first byte in page to all pixels with colour 3 (red by default ).
   0031 21 03 03      [10]   87 	ld	hl, #0x0303
   0034 E5            [11]   88 	push	hl
   0035 2E 03         [ 7]   89 	ld	l, #0x03
   0037 E5            [11]   90 	push	hl
   0038 CDr00r00      [17]   91 	call	_cpct_px2byteM1
   003B F1            [10]   92 	pop	af
   003C F1            [10]   93 	pop	af
   003D 4D            [ 4]   94 	ld	c, l
   003E 21 00 40      [10]   95 	ld	hl, #0x4000
   0041 71            [ 7]   96 	ld	(hl), c
                             97 ;src/main.c:47: cpct_pageMemory(RAMCFG_6 | BANK_0);				// Set the 4th page (64kb to 80kb) in 0x4000-0x7FFF
   0042 2E 06         [ 7]   98 	ld	l, #0x06
   0044 CDr00r00      [17]   99 	call	_cpct_pageMemory
                            100 ;src/main.c:52: *firstByteInPage = cpct_px2byteM1(1, 1, 2, 2);	// Set the first byte in page to all pixels with colours 1, 2 (yellow, cyan by default ).
   0047 21 02 02      [10]  101 	ld	hl, #0x0202
   004A E5            [11]  102 	push	hl
   004B 21 01 01      [10]  103 	ld	hl, #0x0101
   004E E5            [11]  104 	push	hl
   004F CDr00r00      [17]  105 	call	_cpct_px2byteM1
   0052 F1            [10]  106 	pop	af
   0053 F1            [10]  107 	pop	af
   0054 4D            [ 4]  108 	ld	c, l
   0055 21 00 40      [10]  109 	ld	hl, #0x4000
   0058 71            [ 7]  110 	ld	(hl), c
                            111 ;src/main.c:54: cpct_pageMemory(RAMCFG_7 | BANK_0);				// Set the 4th page (64kb to 80kb) in 0x4000-0x7FFF
   0059 2E 07         [ 7]  112 	ld	l, #0x07
   005B CDr00r00      [17]  113 	call	_cpct_pageMemory
                            114 ;src/main.c:59: *firstByteInPage = cpct_px2byteM1(1, 1, 3, 3);	// Set the first byte in page to all pixels with colours 1, 3 (yellow, cyan by default ).
   005E 21 03 03      [10]  115 	ld	hl, #0x0303
   0061 E5            [11]  116 	push	hl
   0062 21 01 01      [10]  117 	ld	hl, #0x0101
   0065 E5            [11]  118 	push	hl
   0066 CDr00r00      [17]  119 	call	_cpct_px2byteM1
   0069 F1            [10]  120 	pop	af
   006A F1            [10]  121 	pop	af
   006B 4D            [ 4]  122 	ld	c, l
   006C 21 00 40      [10]  123 	ld	hl, #0x4000
   006F 71            [ 7]  124 	ld	(hl), c
                            125 ;src/main.c:61: cpct_pageMemory(RAMCFG_0 | BANK_0); 				// Set the memory again to default state
   0070 2E 00         [ 7]  126 	ld	l, #0x00
   0072 CDr00r00      [17]  127 	call	_cpct_pageMemory
                            128 ;src/main.c:64: cpct_memset(CPCT_VMEM_START, 0, 0x4000);
   0075 21 00 40      [10]  129 	ld	hl, #0x4000
   0078 E5            [11]  130 	push	hl
   0079 AF            [ 4]  131 	xor	a, a
   007A F5            [11]  132 	push	af
   007B 33            [ 6]  133 	inc	sp
   007C 26 C0         [ 7]  134 	ld	h, #0xc0
   007E E5            [11]  135 	push	hl
   007F CDr00r00      [17]  136 	call	_cpct_memset
                            137 ;src/main.c:67: cpct_pageMemory(RAMCFG_0 | BANK_0); // Not needed, sets the memory with the first 64kb accesible, in consecutive banks.
   0082 2E 00         [ 7]  138 	ld	l, #0x00
   0084 CDr00r00      [17]  139 	call	_cpct_pageMemory
                            140 ;src/main.c:68: pvmem = cpct_getScreenPtr(CPCT_VMEM_START, 0, 0);
   0087 21 00 00      [10]  141 	ld	hl, #0x0000
   008A E5            [11]  142 	push	hl
   008B 26 C0         [ 7]  143 	ld	h, #0xc0
   008D E5            [11]  144 	push	hl
   008E CDr00r00      [17]  145 	call	_cpct_getScreenPtr
   0091 4D            [ 4]  146 	ld	c, l
   0092 44            [ 4]  147 	ld	b, h
                            148 ;src/main.c:69: cpct_drawSolidBox(pvmem, *firstByteInPage, 2, 8);
   0093 21 00 40      [10]  149 	ld	hl, #0x4000
   0096 5E            [ 7]  150 	ld	e, (hl)
   0097 16 00         [ 7]  151 	ld	d, #0x00
   0099 21 02 08      [10]  152 	ld	hl, #0x0802
   009C E5            [11]  153 	push	hl
   009D D5            [11]  154 	push	de
   009E C5            [11]  155 	push	bc
   009F CDr00r00      [17]  156 	call	_cpct_drawSolidBox
                            157 ;src/main.c:70: pvmem = cpct_getScreenPtr(CPCT_VMEM_START, 4, 0);
   00A2 21 04 00      [10]  158 	ld	hl, #0x0004
   00A5 E5            [11]  159 	push	hl
   00A6 21 00 C0      [10]  160 	ld	hl, #0xc000
   00A9 E5            [11]  161 	push	hl
   00AA CDr00r00      [17]  162 	call	_cpct_getScreenPtr
                            163 ;src/main.c:71: cpct_setDrawCharM1(1, 0);
   00AD E5            [11]  164 	push	hl
   00AE 01 01 00      [10]  165 	ld	bc, #0x0001
   00B1 C5            [11]  166 	push	bc
   00B2 CDr00r00      [17]  167 	call	_cpct_setDrawCharM1
   00B5 E1            [10]  168 	pop	hl
                            169 ;src/main.c:72: cpct_drawStringM1("RAMCFG_0", pvmem);
   00B6 01r91r01      [10]  170 	ld	bc, #___str_0+0
   00B9 E5            [11]  171 	push	hl
   00BA C5            [11]  172 	push	bc
   00BB CDr00r00      [17]  173 	call	_cpct_drawStringM1
                            174 ;src/main.c:74: cpct_pageMemory(RAMCFG_4 | BANK_0); // Set the 4th page (64kb to 80kb) in 0x4000-0x7FFF
   00BE 2E 04         [ 7]  175 	ld	l, #0x04
   00C0 CDr00r00      [17]  176 	call	_cpct_pageMemory
                            177 ;src/main.c:75: pvmem = cpct_getScreenPtr(CPCT_VMEM_START, 0, 16);
   00C3 21 00 10      [10]  178 	ld	hl, #0x1000
   00C6 E5            [11]  179 	push	hl
   00C7 26 C0         [ 7]  180 	ld	h, #0xc0
   00C9 E5            [11]  181 	push	hl
   00CA CDr00r00      [17]  182 	call	_cpct_getScreenPtr
   00CD 4D            [ 4]  183 	ld	c, l
   00CE 44            [ 4]  184 	ld	b, h
                            185 ;src/main.c:76: cpct_drawSolidBox(pvmem, *firstByteInPage, 2, 8);
   00CF 21 00 40      [10]  186 	ld	hl, #0x4000
   00D2 5E            [ 7]  187 	ld	e, (hl)
   00D3 16 00         [ 7]  188 	ld	d, #0x00
   00D5 21 02 08      [10]  189 	ld	hl, #0x0802
   00D8 E5            [11]  190 	push	hl
   00D9 D5            [11]  191 	push	de
   00DA C5            [11]  192 	push	bc
   00DB CDr00r00      [17]  193 	call	_cpct_drawSolidBox
                            194 ;src/main.c:77: pvmem = cpct_getScreenPtr(CPCT_VMEM_START, 4, 16);
   00DE 21 04 10      [10]  195 	ld	hl, #0x1004
   00E1 E5            [11]  196 	push	hl
   00E2 21 00 C0      [10]  197 	ld	hl, #0xc000
   00E5 E5            [11]  198 	push	hl
   00E6 CDr00r00      [17]  199 	call	_cpct_getScreenPtr
                            200 ;src/main.c:78: cpct_drawStringM1("RAMCFG_4", pvmem);
   00E9 01r9Ar01      [10]  201 	ld	bc, #___str_1+0
   00EC E5            [11]  202 	push	hl
   00ED C5            [11]  203 	push	bc
   00EE CDr00r00      [17]  204 	call	_cpct_drawStringM1
                            205 ;src/main.c:80: cpct_pageMemory(RAMCFG_5 | BANK_0); // Set the 4th page (64kb to 80kb) in 0x4000-0x7FFF
   00F1 2E 05         [ 7]  206 	ld	l, #0x05
   00F3 CDr00r00      [17]  207 	call	_cpct_pageMemory
                            208 ;src/main.c:81: pvmem = cpct_getScreenPtr(CPCT_VMEM_START, 0, 32);
   00F6 21 00 20      [10]  209 	ld	hl, #0x2000
   00F9 E5            [11]  210 	push	hl
   00FA 26 C0         [ 7]  211 	ld	h, #0xc0
   00FC E5            [11]  212 	push	hl
   00FD CDr00r00      [17]  213 	call	_cpct_getScreenPtr
   0100 4D            [ 4]  214 	ld	c, l
   0101 44            [ 4]  215 	ld	b, h
                            216 ;src/main.c:82: cpct_drawSolidBox(pvmem, *firstByteInPage, 2, 8);
   0102 21 00 40      [10]  217 	ld	hl, #0x4000
   0105 5E            [ 7]  218 	ld	e, (hl)
   0106 16 00         [ 7]  219 	ld	d, #0x00
   0108 21 02 08      [10]  220 	ld	hl, #0x0802
   010B E5            [11]  221 	push	hl
   010C D5            [11]  222 	push	de
   010D C5            [11]  223 	push	bc
   010E CDr00r00      [17]  224 	call	_cpct_drawSolidBox
                            225 ;src/main.c:83: pvmem = cpct_getScreenPtr(CPCT_VMEM_START, 4, 32);
   0111 21 04 20      [10]  226 	ld	hl, #0x2004
   0114 E5            [11]  227 	push	hl
   0115 21 00 C0      [10]  228 	ld	hl, #0xc000
   0118 E5            [11]  229 	push	hl
   0119 CDr00r00      [17]  230 	call	_cpct_getScreenPtr
                            231 ;src/main.c:84: cpct_drawStringM1("RAMCFG_5", pvmem);
   011C 01rA3r01      [10]  232 	ld	bc, #___str_2+0
   011F E5            [11]  233 	push	hl
   0120 C5            [11]  234 	push	bc
   0121 CDr00r00      [17]  235 	call	_cpct_drawStringM1
                            236 ;src/main.c:86: cpct_pageMemory(RAMCFG_6 | BANK_0); // Set the 4th page (64kb to 80kb) in 0x4000-0x7FFF
   0124 2E 06         [ 7]  237 	ld	l, #0x06
   0126 CDr00r00      [17]  238 	call	_cpct_pageMemory
                            239 ;src/main.c:87: pvmem = cpct_getScreenPtr(CPCT_VMEM_START, 0, 48);
   0129 21 00 30      [10]  240 	ld	hl, #0x3000
   012C E5            [11]  241 	push	hl
   012D 26 C0         [ 7]  242 	ld	h, #0xc0
   012F E5            [11]  243 	push	hl
   0130 CDr00r00      [17]  244 	call	_cpct_getScreenPtr
   0133 4D            [ 4]  245 	ld	c, l
   0134 44            [ 4]  246 	ld	b, h
                            247 ;src/main.c:88: cpct_drawSolidBox(pvmem, *firstByteInPage, 2, 8);
   0135 21 00 40      [10]  248 	ld	hl, #0x4000
   0138 5E            [ 7]  249 	ld	e, (hl)
   0139 16 00         [ 7]  250 	ld	d, #0x00
   013B 21 02 08      [10]  251 	ld	hl, #0x0802
   013E E5            [11]  252 	push	hl
   013F D5            [11]  253 	push	de
   0140 C5            [11]  254 	push	bc
   0141 CDr00r00      [17]  255 	call	_cpct_drawSolidBox
                            256 ;src/main.c:89: pvmem = cpct_getScreenPtr(CPCT_VMEM_START, 4, 48);
   0144 21 04 30      [10]  257 	ld	hl, #0x3004
   0147 E5            [11]  258 	push	hl
   0148 21 00 C0      [10]  259 	ld	hl, #0xc000
   014B E5            [11]  260 	push	hl
   014C CDr00r00      [17]  261 	call	_cpct_getScreenPtr
                            262 ;src/main.c:90: cpct_drawStringM1("RAMCFG_6", pvmem);
   014F 01rACr01      [10]  263 	ld	bc, #___str_3+0
   0152 E5            [11]  264 	push	hl
   0153 C5            [11]  265 	push	bc
   0154 CDr00r00      [17]  266 	call	_cpct_drawStringM1
                            267 ;src/main.c:92: cpct_pageMemory(RAMCFG_7 | BANK_0); // Set the 4th page (64kb to 80kb) in 0x4000-0x7FFF
   0157 2E 07         [ 7]  268 	ld	l, #0x07
   0159 CDr00r00      [17]  269 	call	_cpct_pageMemory
                            270 ;src/main.c:93: pvmem = cpct_getScreenPtr(CPCT_VMEM_START, 0, 64);
   015C 21 00 40      [10]  271 	ld	hl, #0x4000
   015F E5            [11]  272 	push	hl
   0160 26 C0         [ 7]  273 	ld	h, #0xc0
   0162 E5            [11]  274 	push	hl
   0163 CDr00r00      [17]  275 	call	_cpct_getScreenPtr
   0166 4D            [ 4]  276 	ld	c, l
   0167 44            [ 4]  277 	ld	b, h
                            278 ;src/main.c:94: cpct_drawSolidBox(pvmem, *firstByteInPage, 2, 8);
   0168 21 00 40      [10]  279 	ld	hl, #0x4000
   016B 5E            [ 7]  280 	ld	e, (hl)
   016C 16 00         [ 7]  281 	ld	d, #0x00
   016E 21 02 08      [10]  282 	ld	hl, #0x0802
   0171 E5            [11]  283 	push	hl
   0172 D5            [11]  284 	push	de
   0173 C5            [11]  285 	push	bc
   0174 CDr00r00      [17]  286 	call	_cpct_drawSolidBox
                            287 ;src/main.c:95: pvmem = cpct_getScreenPtr(CPCT_VMEM_START, 4, 64);
   0177 21 04 40      [10]  288 	ld	hl, #0x4004
   017A E5            [11]  289 	push	hl
   017B 21 00 C0      [10]  290 	ld	hl, #0xc000
   017E E5            [11]  291 	push	hl
   017F CDr00r00      [17]  292 	call	_cpct_getScreenPtr
                            293 ;src/main.c:96: cpct_drawStringM1("RAMCFG_7", pvmem);
   0182 01rB5r01      [10]  294 	ld	bc, #___str_4+0
   0185 E5            [11]  295 	push	hl
   0186 C5            [11]  296 	push	bc
   0187 CDr00r00      [17]  297 	call	_cpct_drawStringM1
                            298 ;src/main.c:98: cpct_pageMemory(DEFAULT_MEM_CFG); // Equivalent to RAMCFG_0 | BANK_0 
   018A 2E 00         [ 7]  299 	ld	l, #0x00
   018C CDr00r00      [17]  300 	call	_cpct_pageMemory
                            301 ;src/main.c:101: while (1);
   018F                     302 00102$:
   018F 18 FE         [12]  303 	jr	00102$
   0191                     304 ___str_0:
   0191 52 41 4D 43 46 47   305 	.ascii "RAMCFG_0"
        5F 30
   0199 00                  306 	.db 0x00
   019A                     307 ___str_1:
   019A 52 41 4D 43 46 47   308 	.ascii "RAMCFG_4"
        5F 34
   01A2 00                  309 	.db 0x00
   01A3                     310 ___str_2:
   01A3 52 41 4D 43 46 47   311 	.ascii "RAMCFG_5"
        5F 35
   01AB 00                  312 	.db 0x00
   01AC                     313 ___str_3:
   01AC 52 41 4D 43 46 47   314 	.ascii "RAMCFG_6"
        5F 36
   01B4 00                  315 	.db 0x00
   01B5                     316 ___str_4:
   01B5 52 41 4D 43 46 47   317 	.ascii "RAMCFG_7"
        5F 37
   01BD 00                  318 	.db 0x00
                            319 	.area _CODE
                            320 	.area _INITIALIZER
                            321 	.area _CABS (ABS)
