ASxxxx Linker V03.00 + NoICE + sdld,  page 1.
Hexadecimal  [32-Bits]

Area                                    Addr        Size        Decimal Bytes (Attributes)
--------------------------------        ----        ----        ------- ----- ------------
.  .ABS.                            00000000    00000000 =           0. bytes (ABS,CON)

      Value  Global                              Global Defined In Module
      -----  --------------------------------   ------------------------
     00000000  .__.ABS.                           
     00000000  l__CABS                         
     00000000  l__DABS                         
     00000000  l__GSFINAL                      
     00000000  l__GSINIT                       
     00000000  l__HOME                         
     00000000  l__INITIALIZED                  
     00000000  l__INITIALIZER                  
     00000000  l__gMaskTable_                  
     00000000  s__CABS                         
     00000000  s__DABS                         
     00000000  s__gMaskTable_                  
     00000000  s__gMaskTable_0                 
     0000008C  l__CSEG                         
     00000100  l__gMaskTable_0                 
     00000BBE  l__DATA                         
     00000F3E  l__CODE                         
     00004000  s__CODE                         
     00004F3E  s__DATA                         
     00005AFC  s__CSEG                         
     00005AFC  s__GSFINAL                      
     00005AFC  s__GSINIT                       
     00005AFC  s__HOME                         
     00005AFC  s__INITIALIZED                  
     00005AFC  s__INITIALIZER                  

ASxxxx Linker V03.00 + NoICE + sdld,  page 2.
Hexadecimal  [32-Bits]

Area                                    Addr        Size        Decimal Bytes (Attributes)
--------------------------------        ----        ----        ------- ----- ------------
_CODE                               00004000    00000F3E =        3902. bytes (REL,CON)

      Value  Global                              Global Defined In Module
      -----  --------------------------------   ------------------------
     00004000  _g_title                           title
     00004140  _g_ship                            ship
     000041A4  _g_fire_0                          fire
     000041AA  _g_fire_1                          fire
     000041B0  _g_palette                         back
     000041B5  _g_tileset                         back
     000041D3  _g_back_00                         back
     0000420F  _g_back_01                         back
     0000424B  _g_back_02                         back
     00004287  _g_back_03                         back
     000042C3  _g_back_04                         back
     000042FF  _g_back_05                         back
     0000433B  _g_back_06                         back
     00004377  _g_back_07                         back
     000043B3  _g_back_08                         back
     000043EF  _g_back_09                         back
     0000442B  _g_back_10                         back
     00004467  _g_back_11                         back
     000044A3  _g_back_12                         back
     000044DF  _g_back_13                         back
     0000451B  _g_back_14                         back
     00004557  _InitializeDrawing                 drawing
     0000456A  _DrawDirectlyToScreen              drawing
     0000461C  _DrawUsingHardwareBackBuffer       drawing
     000046CF  _DrawUsingSpriteBackBuffer         drawing
     0000478A  _SelectDrawFunction                drawing
     000047C6  _ScrollAndDrawSpace                drawing
     000047D0  _InitializeVideoMemoryBuffers      manageVideoMem
     000047D0  _dummy_cpct_transparentMaskTable   main
     000047E3  _FlipBuffers                       manageVideoMem
     00004802  _GetScreenPtr                      manageVideoMem
     00004823  _GetBackBufferPtr                  manageVideoMem
     00004844  _GetSpriteBackBufferPtr            manageVideoMem
     00004869  _DrawSpriteBackBufferToScreen      manageVideoMem
     00004882  _DrawInfoTextToBuffer              textDrawing
     00004A38  _DrawInfoText                      textDrawing
     00004A48  _DrawSelectionToBuffer             textDrawing
     00004A8E  _DrawTextSelectionSign             textDrawing
     00004AB5  _cpct_setPalette                   cpct_video
     00004ACC  _cpct_isKeyPressed                 cpct_keyboard
     00004ACC  cpct_isKeyPressed_asm              cpct_keyboard
     00004AD8  _cpct_scanKeyboard_f               cpct_keyboard
     00004AD8  cpct_scanKeyboard_f_asm            cpct_keyboard
     00004B42  _cpct_drawStringM1                 cpct_strings
     00004B72  _cpct_drawSprite                   cpct_sprites
     00004C17  cpct_drawCharM1_inner_asm          cpct_strings
     00004C57  cpct_char2pxM1                     cpct_strings
     00004C67  _cpct_keyboardStatusBuffer         cpct_keyboard
     00004C71  _cpct_drawToSpriteBufferMaskedAl   cpct_sprites
     00004CA6  _cpct_setVideoMemoryPage           cpct_video
ASxxxx Linker V03.00 + NoICE + sdld,  page 3.
Hexadecimal  [32-Bits]

Area                                    Addr        Size        Decimal Bytes (Attributes)
--------------------------------        ----        ----        ------- ----- ------------
_CODE                               00004000    00000F3E =        3902. bytes (REL,CON)

      Value  Global                              Global Defined In Module
      -----  --------------------------------   ------------------------
     00004CA6  cpct_setVideoMemoryPage_asm        cpct_video
     00004CAF  _cpct_drawSpriteMasked             cpct_sprites
     00004CDE  _cpct_setStackLocation             cpct_memutils
     00004CDE  cpct_setStackLocation_asm          cpct_memutils
     00004CE2  ___sdcc_call_hl                    
     00004CE3  _cpct_drawToSpriteBuffer           cpct_sprites
     00004D01  _cpct_waitVSYNC                    cpct_video
     00004D01  cpct_waitVSYNC_asm                 cpct_video
     00004D09  _cpct_memset                       cpct_memutils
     00004D17  _cpct_disableFirmware              cpct_firmware
     00004D17  _cpct_removeInterruptHandler       cpct_firmware
     00004D17  cpct_disableFirmware_asm           cpct_firmware
     00004D17  cpct_removeInterruptHandler_asm    cpct_firmware
     00004D27  _cpct_drawSolidBox                 cpct_sprites
     00004DCE  __modschar                         
     00004DDB  __modsint                          
     00004DE7  _cpct_mode_rom_status              cpct_firmware
     00004DE8  _cpct_setDrawCharM1                cpct_strings
     00004E3C  _cpct_getScreenPtr                 cpct_video
     00004E52  _cpct_drawSpriteMaskedAlignedTab   cpct_sprites
     00004E8D  _cpct_drawToSpriteBufferMasked     cpct_sprites
     00004EB1  __divsint                          
     00004EBA  __divschar                         
     00004EC1  __div8                             
     00004EC5  __div_signexte                     
     00004EC9  __div16                            
     00004EEF  __get_remainder                    
     00004EF9  __divuint                          
     00004F01  __divuchar                         
     00004F08  __divu8                            
     00004F0B  __divu16                           
     00004F3A  dc_mode1_ct                        

ASxxxx Linker V03.00 + NoICE + sdld,  page 4.
Hexadecimal  [32-Bits]

Area                                    Addr        Size        Decimal Bytes (Attributes)
--------------------------------        ----        ----        ------- ----- ------------
_DATA                               00004F3E    00000BBE =        3006. bytes (REL,CON)

      Value  Global                              Global Defined In Module
      -----  --------------------------------   ------------------------
     00004F3E  _gNbTileset                        drawing
     00004F3F  _gPosScroll                        drawing
     00004F40  _gDrawFunction                     drawing
     00004F41  _gDrawFunc                         drawing
     00004F43  _gSpriteBackBuffer                 manageVideoMem
     00005AFB  _gVMem                             manageVideoMem
ASxxxx Linker V03.00 + NoICE + sdld,  page 5.
Hexadecimal  [32-Bits]

Area                                    Addr        Size        Decimal Bytes (Attributes)
--------------------------------        ----        ----        ------- ----- ------------
_gMaskTable_0                       00000000    00000100 =         256. bytes (ABS,CON)

      Value  Global                              Global Defined In Module
      -----  --------------------------------   ------------------------
     00007F00  _gMaskTable                        main

ASxxxx Linker V03.00 + NoICE + sdld,  page 6.
Hexadecimal  [32-Bits]

Area                                    Addr        Size        Decimal Bytes (Attributes)
--------------------------------        ----        ----        ------- ----- ------------
_CSEG                               00005AFC    0000008C =         140. bytes (REL,CON)

      Value  Global                              Global Defined In Module
      -----  --------------------------------   ------------------------
     00005AFC  _CheckUserInput                    main
     00005B4F  _Initialization                    main
     00005B77  _main                              main
ASxxxx Linker V03.00 + NoICE + sdld,  page 7.

Files Linked                              [ module(s) ]

obj/sprites/title.rel                     [ title ]
obj/sprites/ship.rel                      [ ship ]
obj/sprites/fire.rel                      [ fire ]
obj/sprites/back.rel                      [ back ]
obj/drawing.rel                           [ drawing ]
obj/main.rel                              [ main ]
obj/manageVideoMem.rel                    [ manageVideoMem ]
obj/textDrawing.rel                       [ textDrawing ]


Libraries Linked                          [ object file ]

/home/oscar/cpctelera/cpctelera/cpctelera.lib
                                          [ cpct_setPalette_cbindings.rel ]
/home/oscar/cpctelera/cpctelera/cpctelera.lib
                                          [ cpct_isKeyPressed.rel ]
/home/oscar/cpctelera/cpctelera/cpctelera.lib
                                          [ cpct_scanKeyboard_f.rel ]
/home/oscar/cpctelera/cpctelera/cpctelera.lib
                                          [ cpct_drawStringM1_cbindings.rel ]
/home/oscar/cpctelera/cpctelera/cpctelera.lib
                                          [ cpct_drawSprite_cbindings.rel ]
/home/oscar/cpctelera/cpctelera/cpctelera.lib
                                          [ cpct_drawCharM1_inner.rel ]
/home/oscar/cpctelera/cpctelera/cpctelera.lib
                                          [ keyboard.rel ]
/home/oscar/cpctelera/cpctelera/cpctelera.lib
                                          [ cpct_drawToSpriteBufferMaskedAli ]
/home/oscar/cpctelera/cpctelera/cpctelera.lib
                                          [ cpct_setVideoMemoryPage.rel ]
/home/oscar/cpctelera/cpctelera/cpctelera.lib
                                          [ cpct_drawSpriteMasked_cbindings. ]
/home/oscar/cpctelera/cpctelera/cpctelera.lib
                                          [ cpct_setStackLocation.rel ]
/home/oscar/cpctelera/cpctelera/tools/sdcc-3.6.8-r9946/bin/../share/sdcc/lib/z80/z80.lib
                                          [ __sdcc_call_hl.rel ]
/home/oscar/cpctelera/cpctelera/cpctelera.lib
                                          [ cpct_drawToSpriteBuffer_cbinding ]
/home/oscar/cpctelera/cpctelera/cpctelera.lib
                                          [ cpct_waitVSYNC.rel ]
/home/oscar/cpctelera/cpctelera/cpctelera.lib
                                          [ cpct_memset_cbinding.rel ]
/home/oscar/cpctelera/cpctelera/cpctelera.lib
                                          [ cpct_removeInterruptHandler.rel ]
/home/oscar/cpctelera/cpctelera/cpctelera.lib
                                          [ cpct_drawSolidBox_cbindings.rel ]
/home/oscar/cpctelera/cpctelera/tools/sdcc-3.6.8-r9946/bin/../share/sdcc/lib/z80/z80.lib
                                          [ modsigned.rel ]
/home/oscar/cpctelera/cpctelera/cpctelera.lib
                                          [ cpc_mode_rom_status.rel ]
/home/oscar/cpctelera/cpctelera/cpctelera.lib
                                          [ cpct_setDrawCharM1_cbindings.rel ]
/home/oscar/cpctelera/cpctelera/cpctelera.lib
                                          [ cpct_getScreenPtr_cbindings.rel ]
/home/oscar/cpctelera/cpctelera/cpctelera.lib
                                          [ cpct_drawSpriteMaskedAlignedTabl ]
/home/oscar/cpctelera/cpctelera/cpctelera.lib
                                          [ cpct_drawToSpriteBufferMasked_cb ]
/home/oscar/cpctelera/cpctelera/tools/sdcc-3.6.8-r9946/bin/../share/sdcc/lib/z80/z80.lib
                                          [ divsigned.rel ]
/home/oscar/cpctelera/cpctelera/tools/sdcc-3.6.8-r9946/bin/../share/sdcc/lib/z80/z80.lib
                                          [ divunsigned.rel ]
/home/oscar/cpctelera/cpctelera/cpctelera.lib
                                          [ cpct_dc_mode1_ct.rel ]

ASxxxx Linker V03.00 + NoICE + sdld,  page 8.

User Base Address Definitions

_CODE = 0x4000
_DATA = 0x0000

