;--------------------------------------------------------
; File Created by SDCC : free open source ANSI-C Compiler
; Version 3.6.8 #9946 (Linux)
;--------------------------------------------------------
	.module main
	.optsdcc -mz80
	
;--------------------------------------------------------
; Public variables in this module
;--------------------------------------------------------
	.globl _main
	.globl _drawLogo
	.globl _cpct_getScreenPtr
	.globl _cpct_setVideoMemoryOffset
	.globl _cpct_setPALColour
	.globl _cpct_setPalette
	.globl _cpct_fw2hw
	.globl _cpct_waitVSYNC
	.globl _cpct_setVideoMode
	.globl _cpct_drawSprite
	.globl _cpct_memset
	.globl _cpct_disableFirmware
	.globl _sinus_offsets
;--------------------------------------------------------
; special function registers
;--------------------------------------------------------
;--------------------------------------------------------
; ram data
;--------------------------------------------------------
	.area _DATA
;--------------------------------------------------------
; ram data
;--------------------------------------------------------
	.area _INITIALIZED
;--------------------------------------------------------
; absolute external ram data
;--------------------------------------------------------
	.area _DABS (ABS)
;--------------------------------------------------------
; global & static initialisations
;--------------------------------------------------------
	.area _HOME
	.area _GSINIT
	.area _GSFINAL
	.area _GSINIT
;--------------------------------------------------------
; Home
;--------------------------------------------------------
	.area _HOME
	.area _HOME
;--------------------------------------------------------
; code
;--------------------------------------------------------
	.area _CODE
;src/main.c:46: void drawLogo() {
;	---------------------------------
; Function drawLogo
; ---------------------------------
_drawLogo::
;src/main.c:51: cpct_clearScreen(0);
	ld	hl, #0x4000
	push	hl
	xor	a, a
	push	af
	inc	sp
	ld	h, #0xc0
	push	hl
	call	_cpct_memset
;src/main.c:54: cpct_fw2hw(G_logo_palette, 4);      // Convert palettes from firmware colour values to hardware colours
	ld	hl, #0x0004
	push	hl
	ld	hl, #_G_logo_palette
	push	hl
	call	_cpct_fw2hw
;src/main.c:55: cpct_setPalette(G_logo_palette, 4); // Set hardware palette   
	ld	hl, #0x0004
	push	hl
	ld	hl, #_G_logo_palette
	push	hl
	call	_cpct_setPalette
;src/main.c:56: cpct_setBorder(G_logo_palette[0]);  // Set the border white, using colour 0 from palette (after converting it to hardware values)
	ld	hl, #_G_logo_palette + 0
	ld	b, (hl)
	push	bc
	inc	sp
	ld	a, #0x10
	push	af
	inc	sp
	call	_cpct_setPALColour
;src/main.c:57: cpct_setVideoMode(1);               // Set video mode 1 (320x200 pixels)
	ld	l, #0x01
	call	_cpct_setVideoMode
;src/main.c:67: pvideo = cpct_getScreenPtr(CPCT_VMEM_START, 40, 4);
	ld	hl, #0x0428
	push	hl
	ld	hl, #0xc000
	push	hl
	call	_cpct_getScreenPtr
;src/main.c:68: cpct_drawSprite(G_CPCt_logo, pvideo, LOGO_W, LOGO_H);
	ld	bc, #_G_CPCt_logo+0
	ld	de, #0xbf28
	push	de
	push	hl
	push	bc
	call	_cpct_drawSprite
	ret
_sinus_offsets:
	.db #0x00	; 0
	.db #0x00	; 0
	.db #0x00	; 0
	.db #0x00	; 0
	.db #0x00	; 0
	.db #0x00	; 0
	.db #0x00	; 0
	.db #0x00	; 0
	.db #0x00	; 0
	.db #0x00	; 0
	.db #0x00	; 0
	.db #0x00	; 0
	.db #0x01	; 1
	.db #0x01	; 1
	.db #0x01	; 1
	.db #0x01	; 1
	.db #0x01	; 1
	.db #0x01	; 1
	.db #0x01	; 1
	.db #0x01	; 1
	.db #0x01	; 1
	.db #0x01	; 1
	.db #0x02	; 2
	.db #0x02	; 2
	.db #0x02	; 2
	.db #0x02	; 2
	.db #0x02	; 2
	.db #0x02	; 2
	.db #0x02	; 2
	.db #0x03	; 3
	.db #0x03	; 3
	.db #0x03	; 3
	.db #0x03	; 3
	.db #0x03	; 3
	.db #0x03	; 3
	.db #0x04	; 4
	.db #0x04	; 4
	.db #0x04	; 4
	.db #0x04	; 4
	.db #0x04	; 4
	.db #0x05	; 5
	.db #0x05	; 5
	.db #0x05	; 5
	.db #0x05	; 5
	.db #0x06	; 6
	.db #0x06	; 6
	.db #0x06	; 6
	.db #0x06	; 6
	.db #0x06	; 6
	.db #0x07	; 7
	.db #0x07	; 7
	.db #0x07	; 7
	.db #0x07	; 7
	.db #0x08	; 8
	.db #0x08	; 8
	.db #0x08	; 8
	.db #0x08	; 8
	.db #0x09	; 9
	.db #0x09	; 9
	.db #0x09	; 9
	.db #0x09	; 9
	.db #0x0a	; 10
	.db #0x0a	; 10
	.db #0x0a	; 10
	.db #0x0a	; 10
	.db #0x0a	; 10
	.db #0x0b	; 11
	.db #0x0b	; 11
	.db #0x0b	; 11
	.db #0x0b	; 11
	.db #0x0c	; 12
	.db #0x0c	; 12
	.db #0x0c	; 12
	.db #0x0c	; 12
	.db #0x0d	; 13
	.db #0x0d	; 13
	.db #0x0d	; 13
	.db #0x0d	; 13
	.db #0x0e	; 14
	.db #0x0e	; 14
	.db #0x0e	; 14
	.db #0x0e	; 14
	.db #0x0e	; 14
	.db #0x0f	; 15
	.db #0x0f	; 15
	.db #0x0f	; 15
	.db #0x0f	; 15
	.db #0x10	; 16
	.db #0x10	; 16
	.db #0x10	; 16
	.db #0x10	; 16
	.db #0x10	; 16
	.db #0x11	; 17
	.db #0x11	; 17
	.db #0x11	; 17
	.db #0x11	; 17
	.db #0x11	; 17
	.db #0x11	; 17
	.db #0x12	; 18
	.db #0x12	; 18
	.db #0x12	; 18
	.db #0x12	; 18
	.db #0x12	; 18
	.db #0x12	; 18
	.db #0x12	; 18
	.db #0x13	; 19
	.db #0x13	; 19
	.db #0x13	; 19
	.db #0x13	; 19
	.db #0x13	; 19
	.db #0x13	; 19
	.db #0x13	; 19
	.db #0x13	; 19
	.db #0x13	; 19
	.db #0x13	; 19
	.db #0x14	; 20
	.db #0x14	; 20
	.db #0x14	; 20
	.db #0x14	; 20
	.db #0x14	; 20
	.db #0x14	; 20
	.db #0x14	; 20
	.db #0x14	; 20
	.db #0x14	; 20
	.db #0x14	; 20
	.db #0x14	; 20
	.db #0x14	; 20
	.db #0x14	; 20
	.db #0x14	; 20
	.db #0x14	; 20
	.db #0x14	; 20
	.db #0x14	; 20
	.db #0x14	; 20
	.db #0x14	; 20
	.db #0x14	; 20
	.db #0x14	; 20
	.db #0x14	; 20
	.db #0x14	; 20
	.db #0x14	; 20
	.db #0x14	; 20
	.db #0x13	; 19
	.db #0x13	; 19
	.db #0x13	; 19
	.db #0x13	; 19
	.db #0x13	; 19
	.db #0x13	; 19
	.db #0x13	; 19
	.db #0x13	; 19
	.db #0x13	; 19
	.db #0x13	; 19
	.db #0x12	; 18
	.db #0x12	; 18
	.db #0x12	; 18
	.db #0x12	; 18
	.db #0x12	; 18
	.db #0x12	; 18
	.db #0x12	; 18
	.db #0x11	; 17
	.db #0x11	; 17
	.db #0x11	; 17
	.db #0x11	; 17
	.db #0x11	; 17
	.db #0x11	; 17
	.db #0x10	; 16
	.db #0x10	; 16
	.db #0x10	; 16
	.db #0x10	; 16
	.db #0x10	; 16
	.db #0x0f	; 15
	.db #0x0f	; 15
	.db #0x0f	; 15
	.db #0x0f	; 15
	.db #0x0e	; 14
	.db #0x0e	; 14
	.db #0x0e	; 14
	.db #0x0e	; 14
	.db #0x0e	; 14
	.db #0x0d	; 13
	.db #0x0d	; 13
	.db #0x0d	; 13
	.db #0x0d	; 13
	.db #0x0c	; 12
	.db #0x0c	; 12
	.db #0x0c	; 12
	.db #0x0c	; 12
	.db #0x0b	; 11
	.db #0x0b	; 11
	.db #0x0b	; 11
	.db #0x0b	; 11
	.db #0x0a	; 10
	.db #0x0a	; 10
	.db #0x0a	; 10
	.db #0x0a	; 10
	.db #0x0a	; 10
	.db #0x09	; 9
	.db #0x09	; 9
	.db #0x09	; 9
	.db #0x09	; 9
	.db #0x08	; 8
	.db #0x08	; 8
	.db #0x08	; 8
	.db #0x08	; 8
	.db #0x07	; 7
	.db #0x07	; 7
	.db #0x07	; 7
	.db #0x07	; 7
	.db #0x06	; 6
	.db #0x06	; 6
	.db #0x06	; 6
	.db #0x06	; 6
	.db #0x06	; 6
	.db #0x05	; 5
	.db #0x05	; 5
	.db #0x05	; 5
	.db #0x05	; 5
	.db #0x04	; 4
	.db #0x04	; 4
	.db #0x04	; 4
	.db #0x04	; 4
	.db #0x04	; 4
	.db #0x03	; 3
	.db #0x03	; 3
	.db #0x03	; 3
	.db #0x03	; 3
	.db #0x03	; 3
	.db #0x03	; 3
	.db #0x02	; 2
	.db #0x02	; 2
	.db #0x02	; 2
	.db #0x02	; 2
	.db #0x02	; 2
	.db #0x02	; 2
	.db #0x02	; 2
	.db #0x01	; 1
	.db #0x01	; 1
	.db #0x01	; 1
	.db #0x01	; 1
	.db #0x01	; 1
	.db #0x01	; 1
	.db #0x01	; 1
	.db #0x01	; 1
	.db #0x01	; 1
	.db #0x01	; 1
	.db #0x00	; 0
	.db #0x00	; 0
	.db #0x00	; 0
	.db #0x00	; 0
	.db #0x00	; 0
	.db #0x00	; 0
	.db #0x00	; 0
	.db #0x00	; 0
	.db #0x00	; 0
	.db #0x00	; 0
	.db #0x00	; 0
	.db #0x00	; 0
	.db #0x00	; 0
;src/main.c:74: void main(void) { 
;	---------------------------------
; Function main
; ---------------------------------
_main::
;src/main.c:78: cpct_disableFirmware(); // Disable firmware to prevent it from interfering with setVideoMode
	call	_cpct_disableFirmware
;src/main.c:79: drawLogo();             // Initialize palette and draw CPCtelera's Logo 
	call	_drawLogo
;src/main.c:84: while (1) {
	ld	c, #0x00
00102$:
;src/main.c:89: cpct_setVideoMemoryOffset(sinus_offsets[i++]);  
	ld	de, #_sinus_offsets+0
	ld	b, c
	inc	c
	ld	l,b
	ld	h,#0x00
	add	hl, de
	ld	l, (hl)
	push	bc
	call	_cpct_setVideoMemoryOffset
	call	_cpct_waitVSYNC
	pop	bc
;src/main.c:93: __asm__("halt");    // HALT assembler instruction makes CPU wait till next HSYNC signal
	halt
	jr	00102$
	.area _CODE
	.area _INITIALIZER
	.area _CABS (ABS)
