                              1 ;--------------------------------------------------------
                              2 ; File Created by SDCC : free open source ANSI-C Compiler
                              3 ; Version 3.6.8 #9946 (Linux)
                              4 ;--------------------------------------------------------
                              5 	.module entities
                              6 	.optsdcc -mz80
                              7 	
                              8 ;--------------------------------------------------------
                              9 ; Public variables in this module
                             10 ;--------------------------------------------------------
                             11 	.globl _cpct_getScreenPtr
                             12 	.globl _g_gravity
                             13 	.globl _moveEntityX
                             14 	.globl _moveEntityY
                             15 	.globl _entityPhysicsUpdate
                             16 	.globl _updateEntities
                             17 ;--------------------------------------------------------
                             18 ; special function registers
                             19 ;--------------------------------------------------------
                             20 ;--------------------------------------------------------
                             21 ; ram data
                             22 ;--------------------------------------------------------
                             23 	.area _DATA
   0000                      24 _g_gravity::
   0000                      25 	.ds 4
                             26 ;--------------------------------------------------------
                             27 ; ram data
                             28 ;--------------------------------------------------------
                             29 	.area _INITIALIZED
                             30 ;--------------------------------------------------------
                             31 ; absolute external ram data
                             32 ;--------------------------------------------------------
                             33 	.area _DABS (ABS)
                             34 ;--------------------------------------------------------
                             35 ; global & static initialisations
                             36 ;--------------------------------------------------------
                             37 	.area _HOME
                             38 	.area _GSINIT
                             39 	.area _GSFINAL
                             40 	.area _GSINIT
                             41 ;--------------------------------------------------------
                             42 ; Home
                             43 ;--------------------------------------------------------
                             44 	.area _HOME
                             45 	.area _HOME
                             46 ;--------------------------------------------------------
                             47 ; code
                             48 ;--------------------------------------------------------
                             49 	.area _CODE
                             50 ;src/entities/entities.c:38: i8 moveEntityX (TEntity* ent, i8 mx, u8 sx) {
                             51 ;	---------------------------------
                             52 ; Function moveEntityX
                             53 ; ---------------------------------
   0000                      54 _moveEntityX::
   0000 DD E5         [15]   55 	push	ix
   0002 DD 21 00 00   [14]   56 	ld	ix,#0
   0006 DD 39         [15]   57 	add	ix,sp
   0008 21 F2 FF      [10]   58 	ld	hl, #-14
   000B 39            [11]   59 	add	hl, sp
   000C F9            [ 6]   60 	ld	sp, hl
                             61 ;src/entities/entities.c:39: i8 bounced = 0;
   000D DD 36 F3 00   [19]   62 	ld	-13 (ix), #0x00
                             63 ;src/entities/entities.c:47: if (umx <= ent->x) {
   0011 DD 7E 04      [19]   64 	ld	a, 4 (ix)
   0014 DD 77 FE      [19]   65 	ld	-2 (ix), a
   0017 DD 7E 05      [19]   66 	ld	a, 5 (ix)
   001A DD 77 FF      [19]   67 	ld	-1 (ix), a
                             68 ;src/entities/entities.c:49: ent->videopos -= umx;
   001D DD 7E FE      [19]   69 	ld	a, -2 (ix)
   0020 C6 02         [ 7]   70 	add	a, #0x02
   0022 DD 77 FC      [19]   71 	ld	-4 (ix), a
   0025 DD 7E FF      [19]   72 	ld	a, -1 (ix)
   0028 CE 00         [ 7]   73 	adc	a, #0x00
   002A DD 77 FD      [19]   74 	ld	-3 (ix), a
                             75 ;src/entities/entities.c:47: if (umx <= ent->x) {
   002D DD 7E FE      [19]   76 	ld	a, -2 (ix)
   0030 C6 04         [ 7]   77 	add	a, #0x04
   0032 DD 77 FA      [19]   78 	ld	-6 (ix), a
   0035 DD 7E FF      [19]   79 	ld	a, -1 (ix)
   0038 CE 00         [ 7]   80 	adc	a, #0x00
   003A DD 77 FB      [19]   81 	ld	-5 (ix), a
                             82 ;src/entities/entities.c:42: if (mx < 0) {
   003D DD CB 06 7E   [20]   83 	bit	7, 6 (ix)
   0041 CArD5r00      [10]   84 	jp	Z, 00110$
                             85 ;src/entities/entities.c:44: u8 umx = -mx;
   0044 AF            [ 4]   86 	xor	a, a
   0045 DD 96 06      [19]   87 	sub	a, 6 (ix)
   0048 DD 77 F2      [19]   88 	ld	-14 (ix), a
                             89 ;src/entities/entities.c:47: if (umx <= ent->x) {
   004B DD 6E FA      [19]   90 	ld	l,-6 (ix)
   004E DD 66 FB      [19]   91 	ld	h,-5 (ix)
   0051 7E            [ 7]   92 	ld	a, (hl)
   0052 DD 77 F9      [19]   93 	ld	-7 (ix), a
   0055 DD 96 F2      [19]   94 	sub	a, -14 (ix)
   0058 38 50         [12]   95 	jr	C,00102$
                             96 ;src/entities/entities.c:48: ent->x        -= umx;
   005A DD 7E F9      [19]   97 	ld	a, -7 (ix)
   005D DD 96 F2      [19]   98 	sub	a, -14 (ix)
   0060 DD 77 F8      [19]   99 	ld	-8 (ix), a
   0063 DD 6E FA      [19]  100 	ld	l,-6 (ix)
   0066 DD 66 FB      [19]  101 	ld	h,-5 (ix)
   0069 DD 7E F8      [19]  102 	ld	a, -8 (ix)
   006C 77            [ 7]  103 	ld	(hl), a
                            104 ;src/entities/entities.c:49: ent->videopos -= umx;
   006D DD 6E FC      [19]  105 	ld	l,-4 (ix)
   0070 DD 66 FD      [19]  106 	ld	h,-3 (ix)
   0073 7E            [ 7]  107 	ld	a, (hl)
   0074 DD 77 F6      [19]  108 	ld	-10 (ix), a
   0077 23            [ 6]  109 	inc	hl
   0078 7E            [ 7]  110 	ld	a, (hl)
   0079 DD 77 F7      [19]  111 	ld	-9 (ix), a
   007C DD 7E F2      [19]  112 	ld	a, -14 (ix)
   007F DD 77 F4      [19]  113 	ld	-12 (ix), a
   0082 DD 36 F5 00   [19]  114 	ld	-11 (ix), #0x00
   0086 DD 7E F6      [19]  115 	ld	a, -10 (ix)
   0089 DD 96 F4      [19]  116 	sub	a, -12 (ix)
   008C DD 77 F4      [19]  117 	ld	-12 (ix), a
   008F DD 7E F7      [19]  118 	ld	a, -9 (ix)
   0092 DD 9E F5      [19]  119 	sbc	a, -11 (ix)
   0095 DD 77 F5      [19]  120 	ld	-11 (ix), a
   0098 DD 6E FC      [19]  121 	ld	l,-4 (ix)
   009B DD 66 FD      [19]  122 	ld	h,-3 (ix)
   009E DD 7E F4      [19]  123 	ld	a, -12 (ix)
   00A1 77            [ 7]  124 	ld	(hl), a
   00A2 23            [ 6]  125 	inc	hl
   00A3 DD 7E F5      [19]  126 	ld	a, -11 (ix)
   00A6 77            [ 7]  127 	ld	(hl), a
   00A7 C3r45r01      [10]  128 	jp	00111$
   00AA                     129 00102$:
                            130 ;src/entities/entities.c:52: ent->videopos -= ent->x;
   00AA DD 6E FC      [19]  131 	ld	l,-4 (ix)
   00AD DD 66 FD      [19]  132 	ld	h,-3 (ix)
   00B0 4E            [ 7]  133 	ld	c, (hl)
   00B1 23            [ 6]  134 	inc	hl
   00B2 46            [ 7]  135 	ld	b, (hl)
   00B3 DD 5E F9      [19]  136 	ld	e, -7 (ix)
   00B6 16 00         [ 7]  137 	ld	d, #0x00
   00B8 79            [ 4]  138 	ld	a, c
   00B9 93            [ 4]  139 	sub	a, e
   00BA 4F            [ 4]  140 	ld	c, a
   00BB 78            [ 4]  141 	ld	a, b
   00BC 9A            [ 4]  142 	sbc	a, d
   00BD 47            [ 4]  143 	ld	b, a
   00BE DD 6E FC      [19]  144 	ld	l,-4 (ix)
   00C1 DD 66 FD      [19]  145 	ld	h,-3 (ix)
   00C4 71            [ 7]  146 	ld	(hl), c
   00C5 23            [ 6]  147 	inc	hl
   00C6 70            [ 7]  148 	ld	(hl), b
                            149 ;src/entities/entities.c:53: ent->x         = 0;
   00C7 DD 6E FA      [19]  150 	ld	l,-6 (ix)
   00CA DD 66 FB      [19]  151 	ld	h,-5 (ix)
   00CD 36 00         [10]  152 	ld	(hl), #0x00
                            153 ;src/entities/entities.c:54: bounced = 1;
   00CF DD 36 F3 01   [19]  154 	ld	-13 (ix), #0x01
   00D3 18 70         [12]  155 	jr	00111$
   00D5                     156 00110$:
                            157 ;src/entities/entities.c:57: } else if (mx) {
   00D5 DD 7E 06      [19]  158 	ld	a, 6 (ix)
   00D8 B7            [ 4]  159 	or	a, a
   00D9 28 6A         [12]  160 	jr	Z,00111$
                            161 ;src/entities/entities.c:59: u8 space_left = sx - ent->width - ent->x;
   00DB DD 6E FE      [19]  162 	ld	l,-2 (ix)
   00DE DD 66 FF      [19]  163 	ld	h,-1 (ix)
   00E1 11 06 00      [10]  164 	ld	de, #0x0006
   00E4 19            [11]  165 	add	hl, de
   00E5 DD 7E 07      [19]  166 	ld	a,7 (ix)
   00E8 96            [ 7]  167 	sub	a,(hl)
   00E9 4F            [ 4]  168 	ld	c, a
   00EA DD 6E FA      [19]  169 	ld	l,-6 (ix)
   00ED DD 66 FB      [19]  170 	ld	h,-5 (ix)
   00F0 6E            [ 7]  171 	ld	l, (hl)
   00F1 79            [ 4]  172 	ld	a, c
   00F2 95            [ 4]  173 	sub	a, l
   00F3 4F            [ 4]  174 	ld	c, a
                            175 ;src/entities/entities.c:60: u8 umx = mx;
   00F4 DD 5E 06      [19]  176 	ld	e, 6 (ix)
                            177 ;src/entities/entities.c:63: if (umx > space_left) {
   00F7 79            [ 4]  178 	ld	a, c
   00F8 93            [ 4]  179 	sub	a, e
   00F9 30 28         [12]  180 	jr	NC,00105$
                            181 ;src/entities/entities.c:65: ent->x        += space_left;
   00FB 7D            [ 4]  182 	ld	a, l
   00FC 81            [ 4]  183 	add	a, c
   00FD DD 6E FA      [19]  184 	ld	l,-6 (ix)
   0100 DD 66 FB      [19]  185 	ld	h,-5 (ix)
   0103 77            [ 7]  186 	ld	(hl), a
                            187 ;src/entities/entities.c:66: ent->videopos += space_left;
   0104 DD 6E FC      [19]  188 	ld	l,-4 (ix)
   0107 DD 66 FD      [19]  189 	ld	h,-3 (ix)
   010A 5E            [ 7]  190 	ld	e, (hl)
   010B 23            [ 6]  191 	inc	hl
   010C 46            [ 7]  192 	ld	b, (hl)
   010D 7B            [ 4]  193 	ld	a, e
   010E 81            [ 4]  194 	add	a, c
   010F 4F            [ 4]  195 	ld	c, a
   0110 78            [ 4]  196 	ld	a, b
   0111 CE 00         [ 7]  197 	adc	a, #0x00
   0113 47            [ 4]  198 	ld	b, a
   0114 DD 6E FC      [19]  199 	ld	l,-4 (ix)
   0117 DD 66 FD      [19]  200 	ld	h,-3 (ix)
   011A 71            [ 7]  201 	ld	(hl), c
   011B 23            [ 6]  202 	inc	hl
   011C 70            [ 7]  203 	ld	(hl), b
                            204 ;src/entities/entities.c:67: bounced = 1;
   011D DD 36 F3 01   [19]  205 	ld	-13 (ix), #0x01
   0121 18 22         [12]  206 	jr	00111$
   0123                     207 00105$:
                            208 ;src/entities/entities.c:69: ent->x        += umx;
   0123 7D            [ 4]  209 	ld	a, l
   0124 83            [ 4]  210 	add	a, e
   0125 DD 6E FA      [19]  211 	ld	l,-6 (ix)
   0128 DD 66 FB      [19]  212 	ld	h,-5 (ix)
   012B 77            [ 7]  213 	ld	(hl), a
                            214 ;src/entities/entities.c:70: ent->videopos += umx;
   012C DD 6E FC      [19]  215 	ld	l,-4 (ix)
   012F DD 66 FD      [19]  216 	ld	h,-3 (ix)
   0132 4E            [ 7]  217 	ld	c, (hl)
   0133 23            [ 6]  218 	inc	hl
   0134 46            [ 7]  219 	ld	b, (hl)
   0135 79            [ 4]  220 	ld	a, c
   0136 83            [ 4]  221 	add	a, e
   0137 4F            [ 4]  222 	ld	c, a
   0138 78            [ 4]  223 	ld	a, b
   0139 CE 00         [ 7]  224 	adc	a, #0x00
   013B 47            [ 4]  225 	ld	b, a
   013C DD 6E FC      [19]  226 	ld	l,-4 (ix)
   013F DD 66 FD      [19]  227 	ld	h,-3 (ix)
   0142 71            [ 7]  228 	ld	(hl), c
   0143 23            [ 6]  229 	inc	hl
   0144 70            [ 7]  230 	ld	(hl), b
   0145                     231 00111$:
                            232 ;src/entities/entities.c:75: return bounced;
   0145 DD 6E F3      [19]  233 	ld	l, -13 (ix)
   0148 DD F9         [10]  234 	ld	sp, ix
   014A DD E1         [14]  235 	pop	ix
   014C C9            [10]  236 	ret
                            237 ;src/entities/entities.c:87: i8 moveEntityY (TEntity* ent, i8 my, u8 sy) {
                            238 ;	---------------------------------
                            239 ; Function moveEntityY
                            240 ; ---------------------------------
   014D                     241 _moveEntityY::
   014D DD E5         [15]  242 	push	ix
   014F DD 21 00 00   [14]  243 	ld	ix,#0
   0153 DD 39         [15]  244 	add	ix,sp
   0155 21 F8 FF      [10]  245 	ld	hl, #-8
   0158 39            [11]  246 	add	hl, sp
   0159 F9            [ 6]  247 	ld	sp, hl
                            248 ;src/entities/entities.c:88: i8 bounced = 0;
   015A 0E 00         [ 7]  249 	ld	c, #0x00
                            250 ;src/entities/entities.c:96: if (umy <= ent->y) {
   015C DD 5E 04      [19]  251 	ld	e,4 (ix)
   015F DD 56 05      [19]  252 	ld	d,5 (ix)
                            253 ;src/entities/entities.c:98: ent->videopos  = cpct_getScreenPtr(CPCT_VMEM_START, ent->x, 2*ent->y);
   0162 21 02 00      [10]  254 	ld	hl, #0x0002
   0165 19            [11]  255 	add	hl,de
   0166 DD 75 FE      [19]  256 	ld	-2 (ix), l
   0169 DD 74 FF      [19]  257 	ld	-1 (ix), h
   016C 21 04 00      [10]  258 	ld	hl, #0x0004
   016F 19            [11]  259 	add	hl,de
   0170 DD 75 FA      [19]  260 	ld	-6 (ix), l
   0173 DD 74 FB      [19]  261 	ld	-5 (ix), h
                            262 ;src/entities/entities.c:96: if (umy <= ent->y) {
   0176 21 05 00      [10]  263 	ld	hl, #0x0005
   0179 19            [11]  264 	add	hl,de
   017A DD 75 FC      [19]  265 	ld	-4 (ix), l
   017D DD 74 FD      [19]  266 	ld	-3 (ix), h
                            267 ;src/entities/entities.c:91: if (my < 0) {
   0180 DD CB 06 7E   [20]  268 	bit	7, 6 (ix)
   0184 28 59         [12]  269 	jr	Z,00110$
                            270 ;src/entities/entities.c:93: u8 umy = -my;
   0186 AF            [ 4]  271 	xor	a, a
   0187 DD 96 06      [19]  272 	sub	a, 6 (ix)
   018A 47            [ 4]  273 	ld	b, a
                            274 ;src/entities/entities.c:96: if (umy <= ent->y) {
   018B DD 6E FC      [19]  275 	ld	l,-4 (ix)
   018E DD 66 FD      [19]  276 	ld	h,-3 (ix)
                            277 ;src/entities/entities.c:97: ent->y        -= umy;
   0191 7E            [ 7]  278 	ld	a, (hl)
   0192 B8            [ 4]  279 	cp	a,b
   0193 38 29         [12]  280 	jr	C,00102$
   0195 90            [ 4]  281 	sub	a, b
   0196 DD 6E FC      [19]  282 	ld	l,-4 (ix)
   0199 DD 66 FD      [19]  283 	ld	h,-3 (ix)
   019C 77            [ 7]  284 	ld	(hl), a
                            285 ;src/entities/entities.c:98: ent->videopos  = cpct_getScreenPtr(CPCT_VMEM_START, ent->x, 2*ent->y);
   019D 87            [ 4]  286 	add	a, a
   019E 57            [ 4]  287 	ld	d, a
   019F DD 6E FA      [19]  288 	ld	l,-6 (ix)
   01A2 DD 66 FB      [19]  289 	ld	h,-5 (ix)
   01A5 46            [ 7]  290 	ld	b, (hl)
   01A6 C5            [11]  291 	push	bc
   01A7 58            [ 4]  292 	ld	e, b
   01A8 D5            [11]  293 	push	de
   01A9 21 00 C0      [10]  294 	ld	hl, #0xc000
   01AC E5            [11]  295 	push	hl
   01AD CDr00r00      [17]  296 	call	_cpct_getScreenPtr
   01B0 EB            [ 4]  297 	ex	de,hl
   01B1 C1            [10]  298 	pop	bc
   01B2 DD 6E FE      [19]  299 	ld	l,-2 (ix)
   01B5 DD 66 FF      [19]  300 	ld	h,-1 (ix)
   01B8 73            [ 7]  301 	ld	(hl), e
   01B9 23            [ 6]  302 	inc	hl
   01BA 72            [ 7]  303 	ld	(hl), d
   01BB C3r40r02      [10]  304 	jp	00111$
   01BE                     305 00102$:
                            306 ;src/entities/entities.c:101: ent->videopos  = CPCT_VMEM_START + ent->x;
   01BE DD 6E FA      [19]  307 	ld	l,-6 (ix)
   01C1 DD 66 FB      [19]  308 	ld	h,-5 (ix)
   01C4 4E            [ 7]  309 	ld	c, (hl)
   01C5 3E 00         [ 7]  310 	ld	a,#0x00
   01C7 C6 C0         [ 7]  311 	add	a,#0xc0
   01C9 47            [ 4]  312 	ld	b, a
   01CA DD 6E FE      [19]  313 	ld	l,-2 (ix)
   01CD DD 66 FF      [19]  314 	ld	h,-1 (ix)
   01D0 71            [ 7]  315 	ld	(hl), c
   01D1 23            [ 6]  316 	inc	hl
   01D2 70            [ 7]  317 	ld	(hl), b
                            318 ;src/entities/entities.c:102: ent->y         = 0;
   01D3 DD 6E FC      [19]  319 	ld	l,-4 (ix)
   01D6 DD 66 FD      [19]  320 	ld	h,-3 (ix)
   01D9 36 00         [10]  321 	ld	(hl), #0x00
                            322 ;src/entities/entities.c:103: bounced = 1;
   01DB 0E 01         [ 7]  323 	ld	c, #0x01
   01DD 18 61         [12]  324 	jr	00111$
   01DF                     325 00110$:
                            326 ;src/entities/entities.c:106: } else if (my) {
   01DF DD 7E 06      [19]  327 	ld	a, 6 (ix)
   01E2 B7            [ 4]  328 	or	a, a
   01E3 28 5B         [12]  329 	jr	Z,00111$
                            330 ;src/entities/entities.c:108: u8 space_left = sy - (ent->height>>1) - ent->y;
   01E5 33            [ 6]  331 	inc	sp
   01E6 33            [ 6]  332 	inc	sp
   01E7 D5            [11]  333 	push	de
   01E8 E1            [10]  334 	pop	hl
   01E9 E5            [11]  335 	push	hl
   01EA 11 07 00      [10]  336 	ld	de, #0x0007
   01ED 19            [11]  337 	add	hl, de
   01EE 46            [ 7]  338 	ld	b, (hl)
   01EF CB 38         [ 8]  339 	srl	b
   01F1 DD 7E 07      [19]  340 	ld	a, 7 (ix)
   01F4 90            [ 4]  341 	sub	a, b
   01F5 5F            [ 4]  342 	ld	e, a
   01F6 DD 6E FC      [19]  343 	ld	l,-4 (ix)
   01F9 DD 66 FD      [19]  344 	ld	h,-3 (ix)
   01FC 46            [ 7]  345 	ld	b, (hl)
   01FD 7B            [ 4]  346 	ld	a, e
   01FE 90            [ 4]  347 	sub	a, b
   01FF 6F            [ 4]  348 	ld	l, a
                            349 ;src/entities/entities.c:109: u8 umy = my;
   0200 DD 56 06      [19]  350 	ld	d, 6 (ix)
                            351 ;src/entities/entities.c:112: if (umy > space_left) {
   0203 7D            [ 4]  352 	ld	a, l
   0204 92            [ 4]  353 	sub	a, d
   0205 30 0B         [12]  354 	jr	NC,00105$
                            355 ;src/entities/entities.c:114: ent->y  = sy - (ent->height>>1);
   0207 DD 6E FC      [19]  356 	ld	l,-4 (ix)
   020A DD 66 FD      [19]  357 	ld	h,-3 (ix)
   020D 73            [ 7]  358 	ld	(hl), e
                            359 ;src/entities/entities.c:115: bounced = 1;
   020E 0E 01         [ 7]  360 	ld	c, #0x01
   0210 18 09         [12]  361 	jr	00106$
   0212                     362 00105$:
                            363 ;src/entities/entities.c:117: ent->y += umy;
   0212 78            [ 4]  364 	ld	a, b
   0213 82            [ 4]  365 	add	a, d
   0214 DD 6E FC      [19]  366 	ld	l,-4 (ix)
   0217 DD 66 FD      [19]  367 	ld	h,-3 (ix)
   021A 77            [ 7]  368 	ld	(hl), a
   021B                     369 00106$:
                            370 ;src/entities/entities.c:120: ent->videopos = cpct_getScreenPtr(CPCT_VMEM_START, ent->x, 2*ent->y);
   021B DD 6E FC      [19]  371 	ld	l,-4 (ix)
   021E DD 66 FD      [19]  372 	ld	h,-3 (ix)
   0221 46            [ 7]  373 	ld	b, (hl)
   0222 CB 20         [ 8]  374 	sla	b
   0224 DD 6E FA      [19]  375 	ld	l,-6 (ix)
   0227 DD 66 FB      [19]  376 	ld	h,-5 (ix)
   022A 56            [ 7]  377 	ld	d, (hl)
   022B C5            [11]  378 	push	bc
   022C 4A            [ 4]  379 	ld	c, d
   022D C5            [11]  380 	push	bc
   022E 21 00 C0      [10]  381 	ld	hl, #0xc000
   0231 E5            [11]  382 	push	hl
   0232 CDr00r00      [17]  383 	call	_cpct_getScreenPtr
   0235 EB            [ 4]  384 	ex	de,hl
   0236 C1            [10]  385 	pop	bc
   0237 DD 6E FE      [19]  386 	ld	l,-2 (ix)
   023A DD 66 FF      [19]  387 	ld	h,-1 (ix)
   023D 73            [ 7]  388 	ld	(hl), e
   023E 23            [ 6]  389 	inc	hl
   023F 72            [ 7]  390 	ld	(hl), d
   0240                     391 00111$:
                            392 ;src/entities/entities.c:123: return bounced;
   0240 69            [ 4]  393 	ld	l, c
   0241 DD F9         [10]  394 	ld	sp, ix
   0243 DD E1         [14]  395 	pop	ix
   0245 C9            [10]  396 	ret
                            397 ;src/entities/entities.c:133: void entityPhysicsUpdate (TVelocity *vel, f32 ax, f32 ay) {
                            398 ;	---------------------------------
                            399 ; Function entityPhysicsUpdate
                            400 ; ---------------------------------
   0246                     401 _entityPhysicsUpdate::
   0246 DD E5         [15]  402 	push	ix
   0248 DD 21 00 00   [14]  403 	ld	ix,#0
   024C DD 39         [15]  404 	add	ix,sp
   024E 21 F4 FF      [10]  405 	ld	hl, #-12
   0251 39            [11]  406 	add	hl, sp
   0252 F9            [ 6]  407 	ld	sp, hl
                            408 ;src/entities/entities.c:135: vel->vx += ax;
   0253 DD 7E 04      [19]  409 	ld	a, 4 (ix)
   0256 DD 77 FE      [19]  410 	ld	-2 (ix), a
   0259 DD 7E 05      [19]  411 	ld	a, 5 (ix)
   025C DD 77 FF      [19]  412 	ld	-1 (ix), a
   025F DD 6E FE      [19]  413 	ld	l,-2 (ix)
   0262 DD 66 FF      [19]  414 	ld	h,-1 (ix)
   0265 4E            [ 7]  415 	ld	c, (hl)
   0266 23            [ 6]  416 	inc	hl
   0267 46            [ 7]  417 	ld	b, (hl)
   0268 23            [ 6]  418 	inc	hl
   0269 5E            [ 7]  419 	ld	e, (hl)
   026A 23            [ 6]  420 	inc	hl
   026B 56            [ 7]  421 	ld	d, (hl)
   026C DD 6E 08      [19]  422 	ld	l,8 (ix)
   026F DD 66 09      [19]  423 	ld	h,9 (ix)
   0272 E5            [11]  424 	push	hl
   0273 DD 6E 06      [19]  425 	ld	l,6 (ix)
   0276 DD 66 07      [19]  426 	ld	h,7 (ix)
   0279 E5            [11]  427 	push	hl
   027A D5            [11]  428 	push	de
   027B C5            [11]  429 	push	bc
   027C CDr00r00      [17]  430 	call	___fsadd
   027F F1            [10]  431 	pop	af
   0280 F1            [10]  432 	pop	af
   0281 F1            [10]  433 	pop	af
   0282 F1            [10]  434 	pop	af
   0283 DD 72 F7      [19]  435 	ld	-9 (ix), d
   0286 DD 73 F6      [19]  436 	ld	-10 (ix), e
   0289 DD 74 F5      [19]  437 	ld	-11 (ix), h
   028C DD 75 F4      [19]  438 	ld	-12 (ix), l
   028F DD 5E FE      [19]  439 	ld	e,-2 (ix)
   0292 DD 56 FF      [19]  440 	ld	d,-1 (ix)
   0295 21 00 00      [10]  441 	ld	hl, #0x0000
   0298 39            [11]  442 	add	hl, sp
   0299 01 04 00      [10]  443 	ld	bc, #0x0004
   029C ED B0         [21]  444 	ldir
                            445 ;src/entities/entities.c:136: vel->vy += ay;
   029E DD 7E FE      [19]  446 	ld	a, -2 (ix)
   02A1 C6 04         [ 7]  447 	add	a, #0x04
   02A3 DD 77 FC      [19]  448 	ld	-4 (ix), a
   02A6 DD 7E FF      [19]  449 	ld	a, -1 (ix)
   02A9 CE 00         [ 7]  450 	adc	a, #0x00
   02AB DD 77 FD      [19]  451 	ld	-3 (ix), a
   02AE DD 6E FC      [19]  452 	ld	l,-4 (ix)
   02B1 DD 66 FD      [19]  453 	ld	h,-3 (ix)
   02B4 4E            [ 7]  454 	ld	c, (hl)
   02B5 23            [ 6]  455 	inc	hl
   02B6 46            [ 7]  456 	ld	b, (hl)
   02B7 23            [ 6]  457 	inc	hl
   02B8 5E            [ 7]  458 	ld	e, (hl)
   02B9 23            [ 6]  459 	inc	hl
   02BA 56            [ 7]  460 	ld	d, (hl)
   02BB DD 6E 0C      [19]  461 	ld	l,12 (ix)
   02BE DD 66 0D      [19]  462 	ld	h,13 (ix)
   02C1 E5            [11]  463 	push	hl
   02C2 DD 6E 0A      [19]  464 	ld	l,10 (ix)
   02C5 DD 66 0B      [19]  465 	ld	h,11 (ix)
   02C8 E5            [11]  466 	push	hl
   02C9 D5            [11]  467 	push	de
   02CA C5            [11]  468 	push	bc
   02CB CDr00r00      [17]  469 	call	___fsadd
   02CE F1            [10]  470 	pop	af
   02CF F1            [10]  471 	pop	af
   02D0 F1            [10]  472 	pop	af
   02D1 F1            [10]  473 	pop	af
   02D2 4D            [ 4]  474 	ld	c, l
   02D3 44            [ 4]  475 	ld	b, h
   02D4 DD 6E FC      [19]  476 	ld	l,-4 (ix)
   02D7 DD 66 FD      [19]  477 	ld	h,-3 (ix)
   02DA 71            [ 7]  478 	ld	(hl), c
   02DB 23            [ 6]  479 	inc	hl
   02DC 70            [ 7]  480 	ld	(hl), b
   02DD 23            [ 6]  481 	inc	hl
   02DE 73            [ 7]  482 	ld	(hl), e
   02DF 23            [ 6]  483 	inc	hl
   02E0 72            [ 7]  484 	ld	(hl), d
                            485 ;src/entities/entities.c:139: vel->vy += g_gravity;
   02E1 2Ar02r00      [16]  486 	ld	hl, (_g_gravity + 2)
   02E4 E5            [11]  487 	push	hl
   02E5 2Ar00r00      [16]  488 	ld	hl, (_g_gravity)
   02E8 E5            [11]  489 	push	hl
   02E9 D5            [11]  490 	push	de
   02EA C5            [11]  491 	push	bc
   02EB CDr00r00      [17]  492 	call	___fsadd
   02EE F1            [10]  493 	pop	af
   02EF F1            [10]  494 	pop	af
   02F0 F1            [10]  495 	pop	af
   02F1 F1            [10]  496 	pop	af
   02F2 4D            [ 4]  497 	ld	c, l
   02F3 44            [ 4]  498 	ld	b, h
   02F4 DD 6E FC      [19]  499 	ld	l,-4 (ix)
   02F7 DD 66 FD      [19]  500 	ld	h,-3 (ix)
   02FA 71            [ 7]  501 	ld	(hl), c
   02FB 23            [ 6]  502 	inc	hl
   02FC 70            [ 7]  503 	ld	(hl), b
   02FD 23            [ 6]  504 	inc	hl
   02FE 73            [ 7]  505 	ld	(hl), e
   02FF 23            [ 6]  506 	inc	hl
   0300 72            [ 7]  507 	ld	(hl), d
                            508 ;src/entities/entities.c:142: if      (vel->vx >  vel->max_x) vel->vx= vel->max_x;
   0301 DD 6E FE      [19]  509 	ld	l,-2 (ix)
   0304 DD 66 FF      [19]  510 	ld	h,-1 (ix)
   0307 4E            [ 7]  511 	ld	c, (hl)
   0308 23            [ 6]  512 	inc	hl
   0309 46            [ 7]  513 	ld	b, (hl)
   030A 23            [ 6]  514 	inc	hl
   030B 5E            [ 7]  515 	ld	e, (hl)
   030C 23            [ 6]  516 	inc	hl
   030D 56            [ 7]  517 	ld	d, (hl)
   030E DD 6E FE      [19]  518 	ld	l,-2 (ix)
   0311 DD 66 FF      [19]  519 	ld	h,-1 (ix)
   0314 C5            [11]  520 	push	bc
   0315 01 10 00      [10]  521 	ld	bc, #0x0010
   0318 09            [11]  522 	add	hl, bc
   0319 C1            [10]  523 	pop	bc
   031A 7E            [ 7]  524 	ld	a, (hl)
   031B DD 77 F8      [19]  525 	ld	-8 (ix), a
   031E 23            [ 6]  526 	inc	hl
   031F 7E            [ 7]  527 	ld	a, (hl)
   0320 DD 77 F9      [19]  528 	ld	-7 (ix), a
   0323 23            [ 6]  529 	inc	hl
   0324 7E            [ 7]  530 	ld	a, (hl)
   0325 DD 77 FA      [19]  531 	ld	-6 (ix), a
   0328 23            [ 6]  532 	inc	hl
   0329 7E            [ 7]  533 	ld	a, (hl)
   032A DD 77 FB      [19]  534 	ld	-5 (ix), a
   032D C5            [11]  535 	push	bc
   032E D5            [11]  536 	push	de
   032F DD 6E FA      [19]  537 	ld	l,-6 (ix)
   0332 DD 66 FB      [19]  538 	ld	h,-5 (ix)
   0335 E5            [11]  539 	push	hl
   0336 DD 6E F8      [19]  540 	ld	l,-8 (ix)
   0339 DD 66 F9      [19]  541 	ld	h,-7 (ix)
   033C E5            [11]  542 	push	hl
   033D DD 6E F6      [19]  543 	ld	l,-10 (ix)
   0340 DD 66 F7      [19]  544 	ld	h,-9 (ix)
   0343 E5            [11]  545 	push	hl
   0344 DD 6E F4      [19]  546 	ld	l,-12 (ix)
   0347 DD 66 F5      [19]  547 	ld	h,-11 (ix)
   034A E5            [11]  548 	push	hl
   034B CDr00r00      [17]  549 	call	___fsgt
   034E F1            [10]  550 	pop	af
   034F F1            [10]  551 	pop	af
   0350 F1            [10]  552 	pop	af
   0351 F1            [10]  553 	pop	af
   0352 D1            [10]  554 	pop	de
   0353 C1            [10]  555 	pop	bc
   0354 7D            [ 4]  556 	ld	a, l
   0355 B7            [ 4]  557 	or	a, a
   0356 28 11         [12]  558 	jr	Z,00104$
   0358 DD 5E FE      [19]  559 	ld	e,-2 (ix)
   035B DD 56 FF      [19]  560 	ld	d,-1 (ix)
   035E 21 04 00      [10]  561 	ld	hl, #0x0004
   0361 39            [11]  562 	add	hl, sp
   0362 01 04 00      [10]  563 	ld	bc, #0x0004
   0365 ED B0         [21]  564 	ldir
   0367 18 42         [12]  565 	jr	00105$
   0369                     566 00104$:
                            567 ;src/entities/entities.c:143: else if (vel->vx < -vel->max_x) vel->vx=-vel->max_x;
   0369 DD 7E FB      [19]  568 	ld	a, -5 (ix)
   036C EE 80         [ 7]  569 	xor	a,#0x80
   036E DD 77 FB      [19]  570 	ld	-5 (ix), a
   0371 DD 7E F8      [19]  571 	ld	a, -8 (ix)
   0374 DD 77 F8      [19]  572 	ld	-8 (ix), a
   0377 DD 7E F9      [19]  573 	ld	a, -7 (ix)
   037A DD 77 F9      [19]  574 	ld	-7 (ix), a
   037D DD 7E FA      [19]  575 	ld	a, -6 (ix)
   0380 DD 77 FA      [19]  576 	ld	-6 (ix), a
   0383 6F            [ 4]  577 	ld	l, a
   0384 DD 66 FB      [19]  578 	ld	h,-5 (ix)
   0387 E5            [11]  579 	push	hl
   0388 DD 6E F8      [19]  580 	ld	l,-8 (ix)
   038B DD 66 F9      [19]  581 	ld	h,-7 (ix)
   038E E5            [11]  582 	push	hl
   038F D5            [11]  583 	push	de
   0390 C5            [11]  584 	push	bc
   0391 CDr00r00      [17]  585 	call	___fslt
   0394 F1            [10]  586 	pop	af
   0395 F1            [10]  587 	pop	af
   0396 F1            [10]  588 	pop	af
   0397 F1            [10]  589 	pop	af
   0398 7D            [ 4]  590 	ld	a, l
   0399 B7            [ 4]  591 	or	a, a
   039A 28 0F         [12]  592 	jr	Z,00105$
   039C DD 5E FE      [19]  593 	ld	e,-2 (ix)
   039F DD 56 FF      [19]  594 	ld	d,-1 (ix)
   03A2 21 04 00      [10]  595 	ld	hl, #0x0004
   03A5 39            [11]  596 	add	hl, sp
   03A6 01 04 00      [10]  597 	ld	bc, #0x0004
   03A9 ED B0         [21]  598 	ldir
   03AB                     599 00105$:
                            600 ;src/entities/entities.c:136: vel->vy += ay;
   03AB DD 5E FC      [19]  601 	ld	e,-4 (ix)
   03AE DD 56 FD      [19]  602 	ld	d,-3 (ix)
   03B1 21 04 00      [10]  603 	ld	hl, #0x0004
   03B4 39            [11]  604 	add	hl, sp
   03B5 EB            [ 4]  605 	ex	de, hl
   03B6 01 04 00      [10]  606 	ld	bc, #0x0004
   03B9 ED B0         [21]  607 	ldir
                            608 ;src/entities/entities.c:144: if      (vel->vy >  vel->max_y) vel->vy= vel->max_y;
   03BB DD 6E FE      [19]  609 	ld	l,-2 (ix)
   03BE DD 66 FF      [19]  610 	ld	h,-1 (ix)
   03C1 11 14 00      [10]  611 	ld	de, #0x0014
   03C4 19            [11]  612 	add	hl, de
   03C5 4E            [ 7]  613 	ld	c, (hl)
   03C6 23            [ 6]  614 	inc	hl
   03C7 46            [ 7]  615 	ld	b, (hl)
   03C8 23            [ 6]  616 	inc	hl
   03C9 5E            [ 7]  617 	ld	e, (hl)
   03CA 23            [ 6]  618 	inc	hl
   03CB 56            [ 7]  619 	ld	d, (hl)
   03CC C5            [11]  620 	push	bc
   03CD D5            [11]  621 	push	de
   03CE D5            [11]  622 	push	de
   03CF C5            [11]  623 	push	bc
   03D0 DD 6E FA      [19]  624 	ld	l,-6 (ix)
   03D3 DD 66 FB      [19]  625 	ld	h,-5 (ix)
   03D6 E5            [11]  626 	push	hl
   03D7 DD 6E F8      [19]  627 	ld	l,-8 (ix)
   03DA DD 66 F9      [19]  628 	ld	h,-7 (ix)
   03DD E5            [11]  629 	push	hl
   03DE CDr00r00      [17]  630 	call	___fsgt
   03E1 F1            [10]  631 	pop	af
   03E2 F1            [10]  632 	pop	af
   03E3 F1            [10]  633 	pop	af
   03E4 F1            [10]  634 	pop	af
   03E5 D1            [10]  635 	pop	de
   03E6 C1            [10]  636 	pop	bc
   03E7 7D            [ 4]  637 	ld	a, l
   03E8 B7            [ 4]  638 	or	a, a
   03E9 28 0F         [12]  639 	jr	Z,00109$
   03EB DD 6E FC      [19]  640 	ld	l,-4 (ix)
   03EE DD 66 FD      [19]  641 	ld	h,-3 (ix)
   03F1 71            [ 7]  642 	ld	(hl), c
   03F2 23            [ 6]  643 	inc	hl
   03F3 70            [ 7]  644 	ld	(hl), b
   03F4 23            [ 6]  645 	inc	hl
   03F5 73            [ 7]  646 	ld	(hl), e
   03F6 23            [ 6]  647 	inc	hl
   03F7 72            [ 7]  648 	ld	(hl), d
   03F8 18 30         [12]  649 	jr	00110$
   03FA                     650 00109$:
                            651 ;src/entities/entities.c:145: else if (vel->vy < -vel->max_y) vel->vy=-vel->max_y;
   03FA 7A            [ 4]  652 	ld	a, d
   03FB EE 80         [ 7]  653 	xor	a,#0x80
   03FD 57            [ 4]  654 	ld	d, a
   03FE C5            [11]  655 	push	bc
   03FF D5            [11]  656 	push	de
   0400 D5            [11]  657 	push	de
   0401 C5            [11]  658 	push	bc
   0402 DD 6E FA      [19]  659 	ld	l,-6 (ix)
   0405 DD 66 FB      [19]  660 	ld	h,-5 (ix)
   0408 E5            [11]  661 	push	hl
   0409 DD 6E F8      [19]  662 	ld	l,-8 (ix)
   040C DD 66 F9      [19]  663 	ld	h,-7 (ix)
   040F E5            [11]  664 	push	hl
   0410 CDr00r00      [17]  665 	call	___fslt
   0413 F1            [10]  666 	pop	af
   0414 F1            [10]  667 	pop	af
   0415 F1            [10]  668 	pop	af
   0416 F1            [10]  669 	pop	af
   0417 D1            [10]  670 	pop	de
   0418 C1            [10]  671 	pop	bc
   0419 7D            [ 4]  672 	ld	a, l
   041A B7            [ 4]  673 	or	a, a
   041B 28 0D         [12]  674 	jr	Z,00110$
   041D DD 6E FC      [19]  675 	ld	l,-4 (ix)
   0420 DD 66 FD      [19]  676 	ld	h,-3 (ix)
   0423 71            [ 7]  677 	ld	(hl), c
   0424 23            [ 6]  678 	inc	hl
   0425 70            [ 7]  679 	ld	(hl), b
   0426 23            [ 6]  680 	inc	hl
   0427 73            [ 7]  681 	ld	(hl), e
   0428 23            [ 6]  682 	inc	hl
   0429 72            [ 7]  683 	ld	(hl), d
   042A                     684 00110$:
                            685 ;src/entities/entities.c:148: vel->acum_x += vel->vx;
   042A DD 7E FE      [19]  686 	ld	a, -2 (ix)
   042D C6 08         [ 7]  687 	add	a, #0x08
   042F DD 77 F8      [19]  688 	ld	-8 (ix), a
   0432 DD 7E FF      [19]  689 	ld	a, -1 (ix)
   0435 CE 00         [ 7]  690 	adc	a, #0x00
   0437 DD 77 F9      [19]  691 	ld	-7 (ix), a
   043A DD 5E F8      [19]  692 	ld	e,-8 (ix)
   043D DD 56 F9      [19]  693 	ld	d,-7 (ix)
   0440 21 00 00      [10]  694 	ld	hl, #0x0000
   0443 39            [11]  695 	add	hl, sp
   0444 EB            [ 4]  696 	ex	de, hl
   0445 01 04 00      [10]  697 	ld	bc, #0x0004
   0448 ED B0         [21]  698 	ldir
   044A DD 6E FE      [19]  699 	ld	l,-2 (ix)
   044D DD 66 FF      [19]  700 	ld	h,-1 (ix)
   0450 4E            [ 7]  701 	ld	c, (hl)
   0451 23            [ 6]  702 	inc	hl
   0452 46            [ 7]  703 	ld	b, (hl)
   0453 23            [ 6]  704 	inc	hl
   0454 5E            [ 7]  705 	ld	e, (hl)
   0455 23            [ 6]  706 	inc	hl
   0456 56            [ 7]  707 	ld	d, (hl)
   0457 D5            [11]  708 	push	de
   0458 C5            [11]  709 	push	bc
   0459 DD 6E F6      [19]  710 	ld	l,-10 (ix)
   045C DD 66 F7      [19]  711 	ld	h,-9 (ix)
   045F E5            [11]  712 	push	hl
   0460 DD 6E F4      [19]  713 	ld	l,-12 (ix)
   0463 DD 66 F5      [19]  714 	ld	h,-11 (ix)
   0466 E5            [11]  715 	push	hl
   0467 CDr00r00      [17]  716 	call	___fsadd
   046A F1            [10]  717 	pop	af
   046B F1            [10]  718 	pop	af
   046C F1            [10]  719 	pop	af
   046D F1            [10]  720 	pop	af
   046E 4D            [ 4]  721 	ld	c, l
   046F 44            [ 4]  722 	ld	b, h
   0470 DD 6E F8      [19]  723 	ld	l,-8 (ix)
   0473 DD 66 F9      [19]  724 	ld	h,-7 (ix)
   0476 71            [ 7]  725 	ld	(hl), c
   0477 23            [ 6]  726 	inc	hl
   0478 70            [ 7]  727 	ld	(hl), b
   0479 23            [ 6]  728 	inc	hl
   047A 73            [ 7]  729 	ld	(hl), e
   047B 23            [ 6]  730 	inc	hl
   047C 72            [ 7]  731 	ld	(hl), d
                            732 ;src/entities/entities.c:149: vel->acum_y += vel->vy;
   047D DD 7E FE      [19]  733 	ld	a, -2 (ix)
   0480 C6 0C         [ 7]  734 	add	a, #0x0c
   0482 DD 77 F8      [19]  735 	ld	-8 (ix), a
   0485 DD 7E FF      [19]  736 	ld	a, -1 (ix)
   0488 CE 00         [ 7]  737 	adc	a, #0x00
   048A DD 77 F9      [19]  738 	ld	-7 (ix), a
   048D DD 5E F8      [19]  739 	ld	e,-8 (ix)
   0490 DD 56 F9      [19]  740 	ld	d,-7 (ix)
   0493 21 00 00      [10]  741 	ld	hl, #0x0000
   0496 39            [11]  742 	add	hl, sp
   0497 EB            [ 4]  743 	ex	de, hl
   0498 01 04 00      [10]  744 	ld	bc, #0x0004
   049B ED B0         [21]  745 	ldir
   049D DD 6E FC      [19]  746 	ld	l,-4 (ix)
   04A0 DD 66 FD      [19]  747 	ld	h,-3 (ix)
   04A3 4E            [ 7]  748 	ld	c, (hl)
   04A4 23            [ 6]  749 	inc	hl
   04A5 46            [ 7]  750 	ld	b, (hl)
   04A6 23            [ 6]  751 	inc	hl
   04A7 5E            [ 7]  752 	ld	e, (hl)
   04A8 23            [ 6]  753 	inc	hl
   04A9 56            [ 7]  754 	ld	d, (hl)
   04AA D5            [11]  755 	push	de
   04AB C5            [11]  756 	push	bc
   04AC DD 6E F6      [19]  757 	ld	l,-10 (ix)
   04AF DD 66 F7      [19]  758 	ld	h,-9 (ix)
   04B2 E5            [11]  759 	push	hl
   04B3 DD 6E F4      [19]  760 	ld	l,-12 (ix)
   04B6 DD 66 F5      [19]  761 	ld	h,-11 (ix)
   04B9 E5            [11]  762 	push	hl
   04BA CDr00r00      [17]  763 	call	___fsadd
   04BD F1            [10]  764 	pop	af
   04BE F1            [10]  765 	pop	af
   04BF F1            [10]  766 	pop	af
   04C0 F1            [10]  767 	pop	af
   04C1 4D            [ 4]  768 	ld	c, l
   04C2 44            [ 4]  769 	ld	b, h
   04C3 DD 6E F8      [19]  770 	ld	l,-8 (ix)
   04C6 DD 66 F9      [19]  771 	ld	h,-7 (ix)
   04C9 71            [ 7]  772 	ld	(hl), c
   04CA 23            [ 6]  773 	inc	hl
   04CB 70            [ 7]  774 	ld	(hl), b
   04CC 23            [ 6]  775 	inc	hl
   04CD 73            [ 7]  776 	ld	(hl), e
   04CE 23            [ 6]  777 	inc	hl
   04CF 72            [ 7]  778 	ld	(hl), d
   04D0 DD F9         [10]  779 	ld	sp, ix
   04D2 DD E1         [14]  780 	pop	ix
   04D4 C9            [10]  781 	ret
                            782 ;src/entities/entities.c:156: void updateEntities(TEntity *logo, f32 ax, f32 ay) {
                            783 ;	---------------------------------
                            784 ; Function updateEntities
                            785 ; ---------------------------------
   04D5                     786 _updateEntities::
   04D5 DD E5         [15]  787 	push	ix
   04D7 DD 21 00 00   [14]  788 	ld	ix,#0
   04DB DD 39         [15]  789 	add	ix,sp
   04DD 21 F4 FF      [10]  790 	ld	hl, #-12
   04E0 39            [11]  791 	add	hl, sp
   04E1 F9            [ 6]  792 	ld	sp, hl
                            793 ;src/entities/entities.c:158: i8 dx=0, dy=0;
   04E2 DD 36 F5 00   [19]  794 	ld	-11 (ix), #0x00
   04E6 DD 36 F4 00   [19]  795 	ld	-12 (ix), #0x00
                            796 ;src/entities/entities.c:161: entityPhysicsUpdate(&logo->vel, ax, ay);
   04EA DD 7E 04      [19]  797 	ld	a, 4 (ix)
   04ED DD 77 FE      [19]  798 	ld	-2 (ix), a
   04F0 DD 7E 05      [19]  799 	ld	a, 5 (ix)
   04F3 DD 77 FF      [19]  800 	ld	-1 (ix), a
   04F6 DD 7E FE      [19]  801 	ld	a, -2 (ix)
   04F9 C6 08         [ 7]  802 	add	a, #0x08
   04FB DD 77 F6      [19]  803 	ld	-10 (ix), a
   04FE DD 7E FF      [19]  804 	ld	a, -1 (ix)
   0501 CE 00         [ 7]  805 	adc	a, #0x00
   0503 DD 77 F7      [19]  806 	ld	-9 (ix), a
   0506 DD 6E 0C      [19]  807 	ld	l,12 (ix)
   0509 DD 66 0D      [19]  808 	ld	h,13 (ix)
   050C E5            [11]  809 	push	hl
   050D DD 6E 0A      [19]  810 	ld	l,10 (ix)
   0510 DD 66 0B      [19]  811 	ld	h,11 (ix)
   0513 E5            [11]  812 	push	hl
   0514 DD 6E 08      [19]  813 	ld	l,8 (ix)
   0517 DD 66 09      [19]  814 	ld	h,9 (ix)
   051A E5            [11]  815 	push	hl
   051B DD 6E 06      [19]  816 	ld	l,6 (ix)
   051E DD 66 07      [19]  817 	ld	h,7 (ix)
   0521 E5            [11]  818 	push	hl
   0522 DD 6E F6      [19]  819 	ld	l,-10 (ix)
   0525 DD 66 F7      [19]  820 	ld	h,-9 (ix)
   0528 E5            [11]  821 	push	hl
   0529 CDr46r02      [17]  822 	call	_entityPhysicsUpdate
   052C 21 0A 00      [10]  823 	ld	hl, #10
   052F 39            [11]  824 	add	hl, sp
   0530 F9            [ 6]  825 	ld	sp, hl
                            826 ;src/entities/entities.c:165: if      (logo->vel.acum_x > 1 ) { dx =  1; logo->vel.acum_x-=1.0; }
   0531 DD 7E FE      [19]  827 	ld	a, -2 (ix)
   0534 C6 10         [ 7]  828 	add	a, #0x10
   0536 DD 77 FC      [19]  829 	ld	-4 (ix), a
   0539 DD 7E FF      [19]  830 	ld	a, -1 (ix)
   053C CE 00         [ 7]  831 	adc	a, #0x00
   053E DD 77 FD      [19]  832 	ld	-3 (ix), a
   0541 DD 5E FC      [19]  833 	ld	e,-4 (ix)
   0544 DD 56 FD      [19]  834 	ld	d,-3 (ix)
   0547 21 04 00      [10]  835 	ld	hl, #0x0004
   054A 39            [11]  836 	add	hl, sp
   054B EB            [ 4]  837 	ex	de, hl
   054C 01 04 00      [10]  838 	ld	bc, #0x0004
   054F ED B0         [21]  839 	ldir
   0551 21 80 3F      [10]  840 	ld	hl, #0x3f80
   0554 E5            [11]  841 	push	hl
   0555 21 00 00      [10]  842 	ld	hl, #0x0000
   0558 E5            [11]  843 	push	hl
   0559 DD 6E FA      [19]  844 	ld	l,-6 (ix)
   055C DD 66 FB      [19]  845 	ld	h,-5 (ix)
   055F E5            [11]  846 	push	hl
   0560 DD 6E F8      [19]  847 	ld	l,-8 (ix)
   0563 DD 66 F9      [19]  848 	ld	h,-7 (ix)
   0566 E5            [11]  849 	push	hl
   0567 CDr00r00      [17]  850 	call	___fsgt
   056A F1            [10]  851 	pop	af
   056B F1            [10]  852 	pop	af
   056C F1            [10]  853 	pop	af
   056D F1            [10]  854 	pop	af
   056E 7D            [ 4]  855 	ld	a, l
   056F B7            [ 4]  856 	or	a, a
   0570 28 32         [12]  857 	jr	Z,00104$
   0572 DD 36 F5 01   [19]  858 	ld	-11 (ix), #0x01
   0576 21 80 3F      [10]  859 	ld	hl, #0x3f80
   0579 E5            [11]  860 	push	hl
   057A 21 00 00      [10]  861 	ld	hl, #0x0000
   057D E5            [11]  862 	push	hl
   057E DD 6E FA      [19]  863 	ld	l,-6 (ix)
   0581 DD 66 FB      [19]  864 	ld	h,-5 (ix)
   0584 E5            [11]  865 	push	hl
   0585 DD 6E F8      [19]  866 	ld	l,-8 (ix)
   0588 DD 66 F9      [19]  867 	ld	h,-7 (ix)
   058B E5            [11]  868 	push	hl
   058C CDr00r00      [17]  869 	call	___fssub
   058F F1            [10]  870 	pop	af
   0590 F1            [10]  871 	pop	af
   0591 F1            [10]  872 	pop	af
   0592 F1            [10]  873 	pop	af
   0593 4D            [ 4]  874 	ld	c, l
   0594 44            [ 4]  875 	ld	b, h
   0595 DD 6E FC      [19]  876 	ld	l,-4 (ix)
   0598 DD 66 FD      [19]  877 	ld	h,-3 (ix)
   059B 71            [ 7]  878 	ld	(hl), c
   059C 23            [ 6]  879 	inc	hl
   059D 70            [ 7]  880 	ld	(hl), b
   059E 23            [ 6]  881 	inc	hl
   059F 73            [ 7]  882 	ld	(hl), e
   05A0 23            [ 6]  883 	inc	hl
   05A1 72            [ 7]  884 	ld	(hl), d
   05A2 18 51         [12]  885 	jr	00105$
   05A4                     886 00104$:
                            887 ;src/entities/entities.c:166: else if (logo->vel.acum_x < -1) { dx = -1; logo->vel.acum_x+=1.0; }
   05A4 21 80 BF      [10]  888 	ld	hl, #0xbf80
   05A7 E5            [11]  889 	push	hl
   05A8 21 00 00      [10]  890 	ld	hl, #0x0000
   05AB E5            [11]  891 	push	hl
   05AC DD 6E FA      [19]  892 	ld	l,-6 (ix)
   05AF DD 66 FB      [19]  893 	ld	h,-5 (ix)
   05B2 E5            [11]  894 	push	hl
   05B3 DD 6E F8      [19]  895 	ld	l,-8 (ix)
   05B6 DD 66 F9      [19]  896 	ld	h,-7 (ix)
   05B9 E5            [11]  897 	push	hl
   05BA CDr00r00      [17]  898 	call	___fslt
   05BD F1            [10]  899 	pop	af
   05BE F1            [10]  900 	pop	af
   05BF F1            [10]  901 	pop	af
   05C0 F1            [10]  902 	pop	af
   05C1 7D            [ 4]  903 	ld	a, l
   05C2 B7            [ 4]  904 	or	a, a
   05C3 28 30         [12]  905 	jr	Z,00105$
   05C5 DD 36 F5 FF   [19]  906 	ld	-11 (ix), #0xff
   05C9 21 80 3F      [10]  907 	ld	hl, #0x3f80
   05CC E5            [11]  908 	push	hl
   05CD 21 00 00      [10]  909 	ld	hl, #0x0000
   05D0 E5            [11]  910 	push	hl
   05D1 DD 6E FA      [19]  911 	ld	l,-6 (ix)
   05D4 DD 66 FB      [19]  912 	ld	h,-5 (ix)
   05D7 E5            [11]  913 	push	hl
   05D8 DD 6E F8      [19]  914 	ld	l,-8 (ix)
   05DB DD 66 F9      [19]  915 	ld	h,-7 (ix)
   05DE E5            [11]  916 	push	hl
   05DF CDr00r00      [17]  917 	call	___fsadd
   05E2 F1            [10]  918 	pop	af
   05E3 F1            [10]  919 	pop	af
   05E4 F1            [10]  920 	pop	af
   05E5 F1            [10]  921 	pop	af
   05E6 4D            [ 4]  922 	ld	c, l
   05E7 44            [ 4]  923 	ld	b, h
   05E8 DD 6E FC      [19]  924 	ld	l,-4 (ix)
   05EB DD 66 FD      [19]  925 	ld	h,-3 (ix)
   05EE 71            [ 7]  926 	ld	(hl), c
   05EF 23            [ 6]  927 	inc	hl
   05F0 70            [ 7]  928 	ld	(hl), b
   05F1 23            [ 6]  929 	inc	hl
   05F2 73            [ 7]  930 	ld	(hl), e
   05F3 23            [ 6]  931 	inc	hl
   05F4 72            [ 7]  932 	ld	(hl), d
   05F5                     933 00105$:
                            934 ;src/entities/entities.c:167: if      (logo->vel.acum_y > 1 ) { dy =  1; logo->vel.acum_y-=1.0; }
   05F5 DD 7E FE      [19]  935 	ld	a, -2 (ix)
   05F8 C6 14         [ 7]  936 	add	a, #0x14
   05FA DD 77 F8      [19]  937 	ld	-8 (ix), a
   05FD DD 7E FF      [19]  938 	ld	a, -1 (ix)
   0600 CE 00         [ 7]  939 	adc	a, #0x00
   0602 DD 77 F9      [19]  940 	ld	-7 (ix), a
   0605 DD 6E F8      [19]  941 	ld	l,-8 (ix)
   0608 DD 66 F9      [19]  942 	ld	h,-7 (ix)
   060B 4E            [ 7]  943 	ld	c, (hl)
   060C 23            [ 6]  944 	inc	hl
   060D 46            [ 7]  945 	ld	b, (hl)
   060E 23            [ 6]  946 	inc	hl
   060F 5E            [ 7]  947 	ld	e, (hl)
   0610 23            [ 6]  948 	inc	hl
   0611 56            [ 7]  949 	ld	d, (hl)
   0612 C5            [11]  950 	push	bc
   0613 D5            [11]  951 	push	de
   0614 21 80 3F      [10]  952 	ld	hl, #0x3f80
   0617 E5            [11]  953 	push	hl
   0618 21 00 00      [10]  954 	ld	hl, #0x0000
   061B E5            [11]  955 	push	hl
   061C D5            [11]  956 	push	de
   061D C5            [11]  957 	push	bc
   061E CDr00r00      [17]  958 	call	___fsgt
   0621 F1            [10]  959 	pop	af
   0622 F1            [10]  960 	pop	af
   0623 F1            [10]  961 	pop	af
   0624 F1            [10]  962 	pop	af
   0625 D1            [10]  963 	pop	de
   0626 C1            [10]  964 	pop	bc
   0627 7D            [ 4]  965 	ld	a, l
   0628 B7            [ 4]  966 	or	a, a
   0629 28 26         [12]  967 	jr	Z,00109$
   062B DD 36 F4 01   [19]  968 	ld	-12 (ix), #0x01
   062F 21 80 3F      [10]  969 	ld	hl, #0x3f80
   0632 E5            [11]  970 	push	hl
   0633 21 00 00      [10]  971 	ld	hl, #0x0000
   0636 E5            [11]  972 	push	hl
   0637 D5            [11]  973 	push	de
   0638 C5            [11]  974 	push	bc
   0639 CDr00r00      [17]  975 	call	___fssub
   063C F1            [10]  976 	pop	af
   063D F1            [10]  977 	pop	af
   063E F1            [10]  978 	pop	af
   063F F1            [10]  979 	pop	af
   0640 4D            [ 4]  980 	ld	c, l
   0641 44            [ 4]  981 	ld	b, h
   0642 DD 6E F8      [19]  982 	ld	l,-8 (ix)
   0645 DD 66 F9      [19]  983 	ld	h,-7 (ix)
   0648 71            [ 7]  984 	ld	(hl), c
   0649 23            [ 6]  985 	inc	hl
   064A 70            [ 7]  986 	ld	(hl), b
   064B 23            [ 6]  987 	inc	hl
   064C 73            [ 7]  988 	ld	(hl), e
   064D 23            [ 6]  989 	inc	hl
   064E 72            [ 7]  990 	ld	(hl), d
   064F 18 3D         [12]  991 	jr	00110$
   0651                     992 00109$:
                            993 ;src/entities/entities.c:168: else if (logo->vel.acum_y < -1) { dy = -1; logo->vel.acum_y+=1.0; }
   0651 C5            [11]  994 	push	bc
   0652 D5            [11]  995 	push	de
   0653 21 80 BF      [10]  996 	ld	hl, #0xbf80
   0656 E5            [11]  997 	push	hl
   0657 21 00 00      [10]  998 	ld	hl, #0x0000
   065A E5            [11]  999 	push	hl
   065B D5            [11] 1000 	push	de
   065C C5            [11] 1001 	push	bc
   065D CDr00r00      [17] 1002 	call	___fslt
   0660 F1            [10] 1003 	pop	af
   0661 F1            [10] 1004 	pop	af
   0662 F1            [10] 1005 	pop	af
   0663 F1            [10] 1006 	pop	af
   0664 D1            [10] 1007 	pop	de
   0665 C1            [10] 1008 	pop	bc
   0666 7D            [ 4] 1009 	ld	a, l
   0667 B7            [ 4] 1010 	or	a, a
   0668 28 24         [12] 1011 	jr	Z,00110$
   066A DD 36 F4 FF   [19] 1012 	ld	-12 (ix), #0xff
   066E 21 80 3F      [10] 1013 	ld	hl, #0x3f80
   0671 E5            [11] 1014 	push	hl
   0672 21 00 00      [10] 1015 	ld	hl, #0x0000
   0675 E5            [11] 1016 	push	hl
   0676 D5            [11] 1017 	push	de
   0677 C5            [11] 1018 	push	bc
   0678 CDr00r00      [17] 1019 	call	___fsadd
   067B F1            [10] 1020 	pop	af
   067C F1            [10] 1021 	pop	af
   067D F1            [10] 1022 	pop	af
   067E F1            [10] 1023 	pop	af
   067F 4D            [ 4] 1024 	ld	c, l
   0680 44            [ 4] 1025 	ld	b, h
   0681 DD 6E F8      [19] 1026 	ld	l,-8 (ix)
   0684 DD 66 F9      [19] 1027 	ld	h,-7 (ix)
   0687 71            [ 7] 1028 	ld	(hl), c
   0688 23            [ 6] 1029 	inc	hl
   0689 70            [ 7] 1030 	ld	(hl), b
   068A 23            [ 6] 1031 	inc	hl
   068B 73            [ 7] 1032 	ld	(hl), e
   068C 23            [ 6] 1033 	inc	hl
   068D 72            [ 7] 1034 	ld	(hl), d
   068E                    1035 00110$:
                           1036 ;src/entities/entities.c:173: if (moveEntityX(logo, dx,  80) ) {
   068E 3E 50         [ 7] 1037 	ld	a, #0x50
   0690 F5            [11] 1038 	push	af
   0691 33            [ 6] 1039 	inc	sp
   0692 DD 7E F5      [19] 1040 	ld	a, -11 (ix)
   0695 F5            [11] 1041 	push	af
   0696 33            [ 6] 1042 	inc	sp
   0697 DD 6E FE      [19] 1043 	ld	l,-2 (ix)
   069A DD 66 FF      [19] 1044 	ld	h,-1 (ix)
   069D E5            [11] 1045 	push	hl
   069E CDr00r00      [17] 1046 	call	_moveEntityX
   06A1 F1            [10] 1047 	pop	af
   06A2 F1            [10] 1048 	pop	af
   06A3 7D            [ 4] 1049 	ld	a, l
   06A4 B7            [ 4] 1050 	or	a, a
   06A5 28 30         [12] 1051 	jr	Z,00112$
                           1052 ;src/entities/entities.c:174: logo->vel.vx = -logo->vel.vx*bounceCoefficient;
   06A7 DD 6E F6      [19] 1053 	ld	l,-10 (ix)
   06AA DD 66 F7      [19] 1054 	ld	h,-9 (ix)
   06AD 4E            [ 7] 1055 	ld	c, (hl)
   06AE 23            [ 6] 1056 	inc	hl
   06AF 46            [ 7] 1057 	ld	b, (hl)
   06B0 23            [ 6] 1058 	inc	hl
   06B1 5E            [ 7] 1059 	ld	e, (hl)
   06B2 23            [ 6] 1060 	inc	hl
   06B3 7E            [ 7] 1061 	ld	a, (hl)
   06B4 EE 80         [ 7] 1062 	xor	a,#0x80
   06B6 57            [ 4] 1063 	ld	d, a
   06B7 21 59 3F      [10] 1064 	ld	hl, #0x3f59
   06BA E5            [11] 1065 	push	hl
   06BB 21 9A 99      [10] 1066 	ld	hl, #0x999a
   06BE E5            [11] 1067 	push	hl
   06BF D5            [11] 1068 	push	de
   06C0 C5            [11] 1069 	push	bc
   06C1 CDr00r00      [17] 1070 	call	___fsmul
   06C4 F1            [10] 1071 	pop	af
   06C5 F1            [10] 1072 	pop	af
   06C6 F1            [10] 1073 	pop	af
   06C7 F1            [10] 1074 	pop	af
   06C8 4D            [ 4] 1075 	ld	c, l
   06C9 44            [ 4] 1076 	ld	b, h
   06CA DD 6E F6      [19] 1077 	ld	l,-10 (ix)
   06CD DD 66 F7      [19] 1078 	ld	h,-9 (ix)
   06D0 71            [ 7] 1079 	ld	(hl), c
   06D1 23            [ 6] 1080 	inc	hl
   06D2 70            [ 7] 1081 	ld	(hl), b
   06D3 23            [ 6] 1082 	inc	hl
   06D4 73            [ 7] 1083 	ld	(hl), e
   06D5 23            [ 6] 1084 	inc	hl
   06D6 72            [ 7] 1085 	ld	(hl), d
   06D7                    1086 00112$:
                           1087 ;src/entities/entities.c:176: if (moveEntityY(logo, dy, 100) ) {
   06D7 3E 64         [ 7] 1088 	ld	a, #0x64
   06D9 F5            [11] 1089 	push	af
   06DA 33            [ 6] 1090 	inc	sp
   06DB DD 7E F4      [19] 1091 	ld	a, -12 (ix)
   06DE F5            [11] 1092 	push	af
   06DF 33            [ 6] 1093 	inc	sp
   06E0 DD 6E 04      [19] 1094 	ld	l,4 (ix)
   06E3 DD 66 05      [19] 1095 	ld	h,5 (ix)
   06E6 E5            [11] 1096 	push	hl
   06E7 CDr4Dr01      [17] 1097 	call	_moveEntityY
   06EA F1            [10] 1098 	pop	af
   06EB F1            [10] 1099 	pop	af
   06EC 7D            [ 4] 1100 	ld	a, l
   06ED B7            [ 4] 1101 	or	a, a
   06EE 28 40         [12] 1102 	jr	Z,00115$
                           1103 ;src/entities/entities.c:177: logo->vel.vy = -logo->vel.vy*bounceCoefficient;
   06F0 DD 7E FE      [19] 1104 	ld	a, -2 (ix)
   06F3 C6 0C         [ 7] 1105 	add	a, #0x0c
   06F5 DD 77 F8      [19] 1106 	ld	-8 (ix), a
   06F8 DD 7E FF      [19] 1107 	ld	a, -1 (ix)
   06FB CE 00         [ 7] 1108 	adc	a, #0x00
   06FD DD 77 F9      [19] 1109 	ld	-7 (ix), a
   0700 DD 6E F8      [19] 1110 	ld	l,-8 (ix)
   0703 DD 66 F9      [19] 1111 	ld	h,-7 (ix)
   0706 4E            [ 7] 1112 	ld	c, (hl)
   0707 23            [ 6] 1113 	inc	hl
   0708 46            [ 7] 1114 	ld	b, (hl)
   0709 23            [ 6] 1115 	inc	hl
   070A 5E            [ 7] 1116 	ld	e, (hl)
   070B 23            [ 6] 1117 	inc	hl
   070C 7E            [ 7] 1118 	ld	a, (hl)
   070D EE 80         [ 7] 1119 	xor	a,#0x80
   070F 57            [ 4] 1120 	ld	d, a
   0710 21 59 3F      [10] 1121 	ld	hl, #0x3f59
   0713 E5            [11] 1122 	push	hl
   0714 21 9A 99      [10] 1123 	ld	hl, #0x999a
   0717 E5            [11] 1124 	push	hl
   0718 D5            [11] 1125 	push	de
   0719 C5            [11] 1126 	push	bc
   071A CDr00r00      [17] 1127 	call	___fsmul
   071D F1            [10] 1128 	pop	af
   071E F1            [10] 1129 	pop	af
   071F F1            [10] 1130 	pop	af
   0720 F1            [10] 1131 	pop	af
   0721 4D            [ 4] 1132 	ld	c, l
   0722 44            [ 4] 1133 	ld	b, h
   0723 DD 6E F8      [19] 1134 	ld	l,-8 (ix)
   0726 DD 66 F9      [19] 1135 	ld	h,-7 (ix)
   0729 71            [ 7] 1136 	ld	(hl), c
   072A 23            [ 6] 1137 	inc	hl
   072B 70            [ 7] 1138 	ld	(hl), b
   072C 23            [ 6] 1139 	inc	hl
   072D 73            [ 7] 1140 	ld	(hl), e
   072E 23            [ 6] 1141 	inc	hl
   072F 72            [ 7] 1142 	ld	(hl), d
   0730                    1143 00115$:
   0730 DD F9         [10] 1144 	ld	sp, ix
   0732 DD E1         [14] 1145 	pop	ix
   0734 C9            [10] 1146 	ret
                           1147 	.area _CODE
                           1148 	.area _INITIALIZER
                           1149 	.area _CABS (ABS)
