                              1 ;--------------------------------------------------------
                              2 ; File Created by SDCC : free open source ANSI-C Compiler
                              3 ; Version 3.6.8 #9946 (Linux)
                              4 ;--------------------------------------------------------
                              5 	.module main
                              6 	.optsdcc -mz80
                              7 	
                              8 ;--------------------------------------------------------
                              9 ; Public variables in this module
                             10 ;--------------------------------------------------------
                             11 	.globl _main
                             12 	.globl _changeVideoMemoryPage
                             13 	.globl _cpct_getScreenPtr
                             14 	.globl _cpct_setVideoMemoryPage
                             15 	.globl _cpct_setPALColour
                             16 	.globl _cpct_setPalette
                             17 	.globl _cpct_fw2hw
                             18 	.globl _cpct_waitVSYNC
                             19 	.globl _cpct_setVideoMode
                             20 	.globl _cpct_drawSprite
                             21 	.globl _cpct_memset
                             22 	.globl _cpct_disableFirmware
                             23 ;--------------------------------------------------------
                             24 ; special function registers
                             25 ;--------------------------------------------------------
                             26 ;--------------------------------------------------------
                             27 ; ram data
                             28 ;--------------------------------------------------------
                             29 	.area _DATA
   0000                      30 _changeVideoMemoryPage_cycles_1_129:
   0000                      31 	.ds 1
   0001                      32 _changeVideoMemoryPage_page_1_129:
   0001                      33 	.ds 1
                             34 ;--------------------------------------------------------
                             35 ; ram data
                             36 ;--------------------------------------------------------
                             37 	.area _INITIALIZED
                             38 ;--------------------------------------------------------
                             39 ; absolute external ram data
                             40 ;--------------------------------------------------------
                             41 	.area _DABS (ABS)
                             42 ;--------------------------------------------------------
                             43 ; global & static initialisations
                             44 ;--------------------------------------------------------
                             45 	.area _HOME
                             46 	.area _GSINIT
                             47 	.area _GSFINAL
                             48 	.area _GSINIT
                             49 ;src/main.c:45: static u8 cycles = 0;   // Static value to count the number of times this function has been called
   0000 FD 21r00r00   [14]   50 	ld	iy, #_changeVideoMemoryPage_cycles_1_129
   0004 FD 36 00 00   [19]   51 	ld	0 (iy), #0x00
                             52 ;src/main.c:46: static u8 page   = 0;   // Static value to remember the last page shown (0 = page 40, 1 = page C0)
   0008 FD 21r01r00   [14]   53 	ld	iy, #_changeVideoMemoryPage_page_1_129
   000C FD 36 00 00   [19]   54 	ld	0 (iy), #0x00
                             55 ;--------------------------------------------------------
                             56 ; Home
                             57 ;--------------------------------------------------------
                             58 	.area _HOME
                             59 	.area _HOME
                             60 ;--------------------------------------------------------
                             61 ; code
                             62 ;--------------------------------------------------------
                             63 	.area _CODE
                             64 ;src/main.c:44: void changeVideoMemoryPage(u8 waitcycles) {
                             65 ;	---------------------------------
                             66 ; Function changeVideoMemoryPage
                             67 ; ---------------------------------
   0000                      68 _changeVideoMemoryPage::
                             69 ;src/main.c:49: if (++cycles >= waitcycles) {     
   0000 FD 21r00r00   [14]   70 	ld	iy, #_changeVideoMemoryPage_cycles_1_129
   0004 FD 34 00      [23]   71 	inc	0 (iy)
   0007 21 02 00      [10]   72 	ld	hl, #2
   000A 39            [11]   73 	add	hl, sp
   000B FD 7E 00      [19]   74 	ld	a, 0 (iy)
   000E 96            [ 7]   75 	sub	a, (hl)
   000F D8            [11]   76 	ret	C
                             77 ;src/main.c:50: cycles = 0;    // We have arrived, restore count to 0
   0010 FD 36 00 00   [19]   78 	ld	0 (iy), #0x00
                             79 ;src/main.c:54: if (page) {
   0014 3Ar01r00      [13]   80 	ld	a,(#_changeVideoMemoryPage_page_1_129 + 0)
   0017 B7            [ 4]   81 	or	a, a
   0018 28 0B         [12]   82 	jr	Z,00102$
                             83 ;src/main.c:55: cpct_setVideoMemoryPage(cpct_pageC0);  // Set video memory at banck 3 (0xC000 - 0xFFFF)
   001A 2E 30         [ 7]   84 	ld	l, #0x30
   001C CDr00r00      [17]   85 	call	_cpct_setVideoMemoryPage
                             86 ;src/main.c:56: page = 0;                              // Next page = 0
   001F 21r01r00      [10]   87 	ld	hl,#_changeVideoMemoryPage_page_1_129 + 0
   0022 36 00         [10]   88 	ld	(hl), #0x00
   0024 C9            [10]   89 	ret
   0025                      90 00102$:
                             91 ;src/main.c:58: cpct_setVideoMemoryPage(cpct_page40);  // Set video memory at banck 1 (0x4000 - 0x7FFF)
   0025 2E 10         [ 7]   92 	ld	l, #0x10
   0027 CDr00r00      [17]   93 	call	_cpct_setVideoMemoryPage
                             94 ;src/main.c:59: page = 1;                              // Next page = 1
   002A 21r01r00      [10]   95 	ld	hl,#_changeVideoMemoryPage_page_1_129 + 0
   002D 36 01         [10]   96 	ld	(hl), #0x01
   002F C9            [10]   97 	ret
                             98 ;src/main.c:69: void main(void) {
                             99 ;	---------------------------------
                            100 ; Function main
                            101 ; ---------------------------------
   0030                     102 _main::
   0030 DD E5         [15]  103 	push	ix
   0032 DD 21 00 00   [14]  104 	ld	ix,#0
   0036 DD 39         [15]  105 	add	ix,sp
   0038 F5            [11]  106 	push	af
                            107 ;src/main.c:70: u8  br_y = 55; // Y coordinate of the ByteRealms Logo 
   0039 DD 36 FF 37   [19]  108 	ld	-1 (ix), #0x37
                            109 ;src/main.c:71: i8  vy   = 1;  // Velocity of the ByteRealms Logo in Y axis
   003D DD 36 FE 01   [19]  110 	ld	-2 (ix), #0x01
                            111 ;src/main.c:75: cpct_disableFirmware();             // Disable firmware to prevent it from interfering
   0041 CDr00r00      [17]  112 	call	_cpct_disableFirmware
                            113 ;src/main.c:76: cpct_fw2hw       (G_palette, 16);   // Convert Firmware colours to Hardware colours 
   0044 21 10 00      [10]  114 	ld	hl, #0x0010
   0047 E5            [11]  115 	push	hl
   0048 21r00r00      [10]  116 	ld	hl, #_G_palette
   004B E5            [11]  117 	push	hl
   004C CDr00r00      [17]  118 	call	_cpct_fw2hw
                            119 ;src/main.c:77: cpct_setPalette  (G_palette, 16);   // Set up palette using hardware colours
   004F 21 10 00      [10]  120 	ld	hl, #0x0010
   0052 E5            [11]  121 	push	hl
   0053 21r00r00      [10]  122 	ld	hl, #_G_palette
   0056 E5            [11]  123 	push	hl
   0057 CDr00r00      [17]  124 	call	_cpct_setPalette
                            125 ;src/main.c:78: cpct_setBorder   (G_palette[0]);    // Set up the border to the background colour (white)
   005A 21r00r00      [10]  126 	ld	hl, #_G_palette + 0
   005D 46            [ 7]  127 	ld	b, (hl)
   005E C5            [11]  128 	push	bc
   005F 33            [ 6]  129 	inc	sp
   0060 3E 10         [ 7]  130 	ld	a, #0x10
   0062 F5            [11]  131 	push	af
   0063 33            [ 6]  132 	inc	sp
   0064 CDr00r00      [17]  133 	call	_cpct_setPALColour
                            134 ;src/main.c:79: cpct_setVideoMode(0);               // Change to Mode 0 (160x200, 16 colours)
   0067 2E 00         [ 7]  135 	ld	l, #0x00
   0069 CDr00r00      [17]  136 	call	_cpct_setVideoMode
                            137 ;src/main.c:82: cpct_memset(CPCT_VMEM_START, 0x00, 0x4000);
   006C 21 00 40      [10]  138 	ld	hl, #0x4000
   006F E5            [11]  139 	push	hl
   0070 AF            [ 4]  140 	xor	a, a
   0071 F5            [11]  141 	push	af
   0072 33            [ 6]  142 	inc	sp
   0073 26 C0         [ 7]  143 	ld	h, #0xc0
   0075 E5            [11]  144 	push	hl
   0076 CDr00r00      [17]  145 	call	_cpct_memset
                            146 ;src/main.c:83: cpct_memset(       SCR_BUFF, 0x00, 0x4000);
   0079 21 00 40      [10]  147 	ld	hl, #0x4000
   007C E5            [11]  148 	push	hl
   007D AF            [ 4]  149 	xor	a, a
   007E F5            [11]  150 	push	af
   007F 33            [ 6]  151 	inc	sp
   0080 2E 00         [ 7]  152 	ld	l, #0x00
   0082 E5            [11]  153 	push	hl
   0083 CDr00r00      [17]  154 	call	_cpct_memset
                            155 ;src/main.c:90: pvmem = cpct_getScreenPtr(SCR_BUFF, 0,   52);
   0086 21 00 34      [10]  156 	ld	hl, #0x3400
   0089 E5            [11]  157 	push	hl
   008A 26 40         [ 7]  158 	ld	h, #0x40
   008C E5            [11]  159 	push	hl
   008D CDr00r00      [17]  160 	call	_cpct_getScreenPtr
   0090 4D            [ 4]  161 	ld	c, l
   0091 44            [ 4]  162 	ld	b, h
                            163 ;src/main.c:91: cpct_drawSprite(G_CPCt_left,  pvmem,          CPCT_W, CPCT_H);
   0092 59            [ 4]  164 	ld	e, c
   0093 50            [ 4]  165 	ld	d, b
   0094 C5            [11]  166 	push	bc
   0095 21 28 60      [10]  167 	ld	hl, #0x6028
   0098 E5            [11]  168 	push	hl
   0099 D5            [11]  169 	push	de
   009A 21r00r00      [10]  170 	ld	hl, #_G_CPCt_left
   009D E5            [11]  171 	push	hl
   009E CDr00r00      [17]  172 	call	_cpct_drawSprite
   00A1 C1            [10]  173 	pop	bc
                            174 ;src/main.c:92: cpct_drawSprite(G_CPCt_right, pvmem + CPCT_W, CPCT_W, CPCT_H);
   00A2 21 28 00      [10]  175 	ld	hl, #0x0028
   00A5 09            [11]  176 	add	hl, bc
   00A6 01r00r00      [10]  177 	ld	bc, #_G_CPCt_right+0
   00A9 11 28 60      [10]  178 	ld	de, #0x6028
   00AC D5            [11]  179 	push	de
   00AD E5            [11]  180 	push	hl
   00AE C5            [11]  181 	push	bc
   00AF CDr00r00      [17]  182 	call	_cpct_drawSprite
                            183 ;src/main.c:97: while(1) {
   00B2                     184 00105$:
                            185 ;src/main.c:101: pvmem = cpct_getScreenPtr(CPCT_VMEM_START, 10, br_y);  // Locate sprite at (10,br_y) in Default Video Memory
   00B2 DD 56 FF      [19]  186 	ld	d, -1 (ix)
   00B5 1E 0A         [ 7]  187 	ld	e,#0x0a
   00B7 D5            [11]  188 	push	de
   00B8 21 00 C0      [10]  189 	ld	hl, #0xc000
   00BB E5            [11]  190 	push	hl
   00BC CDr00r00      [17]  191 	call	_cpct_getScreenPtr
                            192 ;src/main.c:102: cpct_drawSprite(G_BR, pvmem, BR_W, BR_H);       // Draw the sprite
   00BF 01r00r00      [10]  193 	ld	bc, #_G_BR+0
   00C2 11 3E 5A      [10]  194 	ld	de, #0x5a3e
   00C5 D5            [11]  195 	push	de
   00C6 E5            [11]  196 	push	hl
   00C7 C5            [11]  197 	push	bc
   00C8 CDr00r00      [17]  198 	call	_cpct_drawSprite
                            199 ;src/main.c:106: changeVideoMemoryPage(125);
   00CB 3E 7D         [ 7]  200 	ld	a, #0x7d
   00CD F5            [11]  201 	push	af
   00CE 33            [ 6]  202 	inc	sp
   00CF CDr00r00      [17]  203 	call	_changeVideoMemoryPage
   00D2 33            [ 6]  204 	inc	sp
                            205 ;src/main.c:109: br_y += vy;                            // Add current velocity to Y coordinate
   00D3 DD 7E FF      [19]  206 	ld	a, -1 (ix)
   00D6 DD 86 FE      [19]  207 	add	a, -2 (ix)
                            208 ;src/main.c:110: if ( br_y < 1 || br_y + BR_H > 199 )   // Check if it exceeds boundaries
   00D9 DD 77 FF      [19]  209 	ld	-1 (ix), a
   00DC D6 01         [ 7]  210 	sub	a, #0x01
   00DE 38 17         [12]  211 	jr	C,00101$
   00E0 DD 4E FF      [19]  212 	ld	c, -1 (ix)
   00E3 06 00         [ 7]  213 	ld	b, #0x00
   00E5 21 5A 00      [10]  214 	ld	hl, #0x005a
   00E8 09            [11]  215 	add	hl, bc
   00E9 3E C7         [ 7]  216 	ld	a, #0xc7
   00EB BD            [ 4]  217 	cp	a, l
   00EC 3E 00         [ 7]  218 	ld	a, #0x00
   00EE 9C            [ 4]  219 	sbc	a, h
   00EF E2rF4r00      [10]  220 	jp	PO, 00117$
   00F2 EE 80         [ 7]  221 	xor	a, #0x80
   00F4                     222 00117$:
   00F4 F2rFEr00      [10]  223 	jp	P, 00102$
   00F7                     224 00101$:
                            225 ;src/main.c:111: vy = -vy;                           // When we exceed boundaries, we change velocity sense
   00F7 AF            [ 4]  226 	xor	a, a
   00F8 DD 96 FE      [19]  227 	sub	a, -2 (ix)
   00FB DD 77 FE      [19]  228 	ld	-2 (ix), a
   00FE                     229 00102$:
                            230 ;src/main.c:114: cpct_waitVSYNC();
   00FE CDr00r00      [17]  231 	call	_cpct_waitVSYNC
   0101 18 AF         [12]  232 	jr	00105$
                            233 	.area _CODE
                            234 	.area _INITIALIZER
                            235 	.area _CABS (ABS)
