ASxxxx Linker V03.00 + NoICE + sdld,  page 1.
Hexadecimal  [32-Bits]

Area                                    Addr        Size        Decimal Bytes (Attributes)
--------------------------------        ----        ----        ------- ----- ------------
.  .ABS.                            00000000    00000000 =           0. bytes (ABS,CON)

      Value  Global                              Global Defined In Module
      -----  --------------------------------   ------------------------
     00000000  .__.ABS.                           cpct_video
     00000000  l__CABS                         
     00000000  l__DABS                         
     00000000  l__DATA                         
     00000000  l__GSFINAL                      
     00000000  l__GSINIT                       
     00000000  l__HOME                         
     00000000  l__INITIALIZED                  
     00000000  l__INITIALIZER                  
     00000000  s__CABS                         
     00000000  s__DABS                         
     00000040  s__CODE                         
     00001E5F  l__CODE                         
     00001E9F  s__DATA                         
     00001E9F  s__GSFINAL                      
     00001E9F  s__GSINIT                       
     00001E9F  s__HOME                         
     00001E9F  s__INITIALIZED                  
     00001E9F  s__INITIALIZER                  

ASxxxx Linker V03.00 + NoICE + sdld,  page 2.
Hexadecimal  [32-Bits]

Area                                    Addr        Size        Decimal Bytes (Attributes)
--------------------------------        ----        ----        ------- ----- ------------
_CODE                               00000040    00001E5F =        7775. bytes (REL,CON)

      Value  Global                              Global Defined In Module
      -----  --------------------------------   ------------------------
     00000040  _g_tilemap                         tilemap
     000015D0  _g_palette                         tiles
     000015DD  _g_tileset                         tiles
     000016CD  _g_tiles_000                       tiles
     000016D5  _g_tiles_001                       tiles
     000016DD  _g_tiles_002                       tiles
     000016E5  _g_tiles_003                       tiles
     000016ED  _g_tiles_004                       tiles
     000016F5  _g_tiles_005                       tiles
     000016FD  _g_tiles_006                       tiles
     00001705  _g_tiles_007                       tiles
     0000170D  _g_tiles_008                       tiles
     00001715  _g_tiles_009                       tiles
     0000171D  _g_tiles_010                       tiles
     00001725  _g_tiles_011                       tiles
     0000172D  _g_tiles_012                       tiles
     00001735  _g_tiles_013                       tiles
     0000173D  _g_tiles_014                       tiles
     00001745  _g_tiles_015                       tiles
     0000174D  _g_tiles_016                       tiles
     00001755  _g_tiles_017                       tiles
     0000175D  _g_tiles_018                       tiles
     00001765  _g_tiles_019                       tiles
     0000176D  _g_tiles_020                       tiles
     00001775  _g_tiles_021                       tiles
     0000177D  _g_tiles_022                       tiles
     00001785  _g_tiles_023                       tiles
     0000178D  _g_tiles_024                       tiles
     00001795  _g_tiles_025                       tiles
     0000179D  _g_tiles_026                       tiles
     000017A5  _g_tiles_027                       tiles
     000017AD  _g_tiles_028                       tiles
     000017B5  _g_tiles_029                       tiles
     000017BD  _g_tiles_030                       tiles
     000017C5  _g_tiles_031                       tiles
     000017CD  _g_tiles_032                       tiles
     000017D5  _g_tiles_033                       tiles
     000017DD  _g_tiles_034                       tiles
     000017E5  _g_tiles_035                       tiles
     000017ED  _g_tiles_036                       tiles
     000017F5  _g_tiles_037                       tiles
     000017FD  _g_tiles_038                       tiles
     00001805  _g_tiles_039                       tiles
     0000180D  _g_tiles_040                       tiles
     00001815  _g_tiles_041                       tiles
     0000181D  _g_tiles_042                       tiles
     00001825  _g_tiles_043                       tiles
     0000182D  _g_tiles_044                       tiles
     00001835  _g_tiles_045                       tiles
     0000183D  _g_tiles_046                       tiles
ASxxxx Linker V03.00 + NoICE + sdld,  page 3.
Hexadecimal  [32-Bits]

Area                                    Addr        Size        Decimal Bytes (Attributes)
--------------------------------        ----        ----        ------- ----- ------------
_CODE                               00000040    00001E5F =        7775. bytes (REL,CON)

      Value  Global                              Global Defined In Module
      -----  --------------------------------   ------------------------
     00001845  _g_tiles_047                       tiles
     0000184D  _g_tiles_048                       tiles
     00001855  _g_tiles_049                       tiles
     0000185D  _g_tiles_050                       tiles
     00001865  _g_tiles_051                       tiles
     0000186D  _g_tiles_052                       tiles
     00001875  _g_tiles_053                       tiles
     0000187D  _g_tiles_054                       tiles
     00001885  _g_tiles_055                       tiles
     0000188D  _g_tiles_056                       tiles
     00001895  _g_tiles_057                       tiles
     0000189D  _g_tiles_058                       tiles
     000018A5  _g_tiles_059                       tiles
     000018AD  _g_tiles_060                       tiles
     000018B5  _g_tiles_061                       tiles
     000018BD  _g_tiles_062                       tiles
     000018C5  _g_tiles_063                       tiles
     000018CD  _g_tiles_064                       tiles
     000018D5  _g_tiles_065                       tiles
     000018DD  _g_tiles_066                       tiles
     000018E5  _g_tiles_067                       tiles
     000018ED  _g_tiles_068                       tiles
     000018F5  _g_tiles_069                       tiles
     000018FD  _g_tiles_070                       tiles
     00001905  _g_tiles_071                       tiles
     0000190D  _g_tiles_072                       tiles
     00001915  _g_tiles_073                       tiles
     0000191D  _g_tiles_074                       tiles
     00001925  _g_tiles_075                       tiles
     0000192D  _g_tiles_076                       tiles
     00001935  _g_tiles_077                       tiles
     0000193D  _g_tiles_078                       tiles
     00001945  _g_tiles_079                       tiles
     0000194D  _g_tiles_080                       tiles
     00001955  _g_tiles_081                       tiles
     0000195D  _g_tiles_082                       tiles
     00001965  _g_tiles_083                       tiles
     0000196D  _g_tiles_084                       tiles
     00001975  _g_tiles_085                       tiles
     0000197D  _g_tiles_086                       tiles
     00001985  _g_tiles_087                       tiles
     0000198D  _g_tiles_088                       tiles
     00001995  _g_tiles_089                       tiles
     0000199D  _g_tiles_090                       tiles
     000019A5  _g_tiles_091                       tiles
     000019AD  _g_tiles_092                       tiles
     000019B5  _g_tiles_093                       tiles
     000019BD  _g_tiles_094                       tiles
     000019C5  _g_tiles_095                       tiles
     000019CD  _g_tiles_096                       tiles
     000019D5  _g_tiles_097                       tiles
ASxxxx Linker V03.00 + NoICE + sdld,  page 4.
Hexadecimal  [32-Bits]

Area                                    Addr        Size        Decimal Bytes (Attributes)
--------------------------------        ----        ----        ------- ----- ------------
_CODE                               00000040    00001E5F =        7775. bytes (REL,CON)

      Value  Global                              Global Defined In Module
      -----  --------------------------------   ------------------------
     000019DD  _g_tiles_098                       tiles
     000019E5  _g_tiles_099                       tiles
     000019ED  _g_tiles_100                       tiles
     000019F5  _g_tiles_101                       tiles
     000019FD  _g_tiles_102                       tiles
     00001A05  _g_tiles_103                       tiles
     00001A0D  _g_tiles_104                       tiles
     00001A15  _g_tiles_105                       tiles
     00001A1D  _g_tiles_106                       tiles
     00001A25  _g_tiles_107                       tiles
     00001A2D  _g_tiles_108                       tiles
     00001A35  _g_tiles_109                       tiles
     00001A3D  _g_tiles_110                       tiles
     00001A45  _g_tiles_111                       tiles
     00001A4D  _g_tiles_112                       tiles
     00001A55  _g_tiles_113                       tiles
     00001A5D  _g_tiles_114                       tiles
     00001A65  _g_tiles_115                       tiles
     00001A6D  _g_tiles_116                       tiles
     00001A75  _g_tiles_117                       tiles
     00001A7D  _g_tiles_118                       tiles
     00001A85  _g_tiles_119                       tiles
     00001A8D  _wait4KeyboardInput                main
     00001AAC  _scrollScreenTilemap               main
     00001B7A  _initialize_CPC                    main
     00001BBE  _main                              main
     00001C2C  _cpct_setPalette                   cpct_video
     00001C43  _cpct_isKeyPressed                 cpct_keyboard
     00001C43  cpct_isKeyPressed_asm              cpct_keyboard
     00001C4F  _cpct_scanKeyboard_f               cpct_keyboard
     00001C4F  cpct_scanKeyboard_f_asm            cpct_keyboard
     00001CB9  _cpct_setPALColour                 cpct_video
     00001CC5  _cpct_setVideoMemoryOffset         cpct_video
     00001CC5  cpct_setVideoMemoryOffset_asm      cpct_video
     00001CCE  _cpct_etm_drawTileBox2x4           cpct_easytilemaps
     00001D5D  _cpct_etm_setTileset2x4            cpct_easytilemaps
     00001D5D  cpct_etm_setTileset2x4_asm         cpct_easytilemaps
     00001D61  _cpct_keyboardStatusBuffer         cpct_keyboard
     00001D6B  _cpct_etm_drawTileRow2x4           cpct_easytilemaps
     00001D72  cpct_etm_drawTileRow2x4_asm        cpct_easytilemaps
     00001D74  dtr_restore_ptileset               cpct_easytilemaps
     00001D8C  _cpct_waitVSYNC                    cpct_video
     00001D8C  cpct_waitVSYNC_asm                 cpct_video
     00001D94  _cpct_setVideoMode                 cpct_video
     00001DA2  _cpct_memset                       cpct_memutils
     00001DB0  _cpct_disableFirmware              cpct_firmware
     00001DB0  _cpct_removeInterruptHandler       cpct_firmware
     00001DB0  cpct_disableFirmware_asm           cpct_firmware
     00001DB0  cpct_removeInterruptHandler_asm    cpct_firmware
     00001DC0  _cpct_drawSolidBox                 cpct_sprites
     00001E67  cpct_drawTileAligned2x4_f_asm      cpct_sprites
ASxxxx Linker V03.00 + NoICE + sdld,  page 5.
Hexadecimal  [32-Bits]

Area                                    Addr        Size        Decimal Bytes (Attributes)
--------------------------------        ----        ----        ------- ----- ------------
_CODE                               00000040    00001E5F =        7775. bytes (REL,CON)

      Value  Global                              Global Defined In Module
      -----  --------------------------------   ------------------------
     00001E88  _cpct_mode_rom_status              cpct_firmware
     00001E89  _cpct_getScreenPtr                 cpct_video

ASxxxx Linker V03.00 + NoICE + sdld,  page 6.

Files Linked                              [ module(s) ]

obj/tilemap.rel                           [ tilemap ]
obj/tiles.rel                             [ tiles ]
obj/main.rel                              [ main ]


Libraries Linked                          [ object file ]

/home/oscar/cpctelera/cpctelera/cpctelera.lib
                                          [ cpct_setPalette_cbindings.rel ]
/home/oscar/cpctelera/cpctelera/cpctelera.lib
                                          [ cpct_isKeyPressed.rel ]
/home/oscar/cpctelera/cpctelera/cpctelera.lib
                                          [ cpct_scanKeyboard_f.rel ]
/home/oscar/cpctelera/cpctelera/cpctelera.lib
                                          [ cpct_setPALColour_cbindings.rel ]
/home/oscar/cpctelera/cpctelera/cpctelera.lib
                                          [ cpct_setVideoMemoryOffset.rel ]
/home/oscar/cpctelera/cpctelera/cpctelera.lib
                                          [ cpct_etm_drawTileBox2x4_cbinding ]
/home/oscar/cpctelera/cpctelera/cpctelera.lib
                                          [ cpct_etm_setTileset2x4.rel ]
/home/oscar/cpctelera/cpctelera/cpctelera.lib
                                          [ keyboard.rel ]
/home/oscar/cpctelera/cpctelera/cpctelera.lib
                                          [ cpct_etm_drawTileRow2x4.rel ]
/home/oscar/cpctelera/cpctelera/cpctelera.lib
                                          [ cpct_waitVSYNC.rel ]
/home/oscar/cpctelera/cpctelera/cpctelera.lib
                                          [ cpct_setVideoMode_cbindings.rel ]
/home/oscar/cpctelera/cpctelera/cpctelera.lib
                                          [ cpct_memset_cbinding.rel ]
/home/oscar/cpctelera/cpctelera/cpctelera.lib
                                          [ cpct_removeInterruptHandler.rel ]
/home/oscar/cpctelera/cpctelera/cpctelera.lib
                                          [ cpct_drawSolidBox_cbindings.rel ]
/home/oscar/cpctelera/cpctelera/cpctelera.lib
                                          [ cpct_drawTileAligned2x4_f_asmbin ]
/home/oscar/cpctelera/cpctelera/cpctelera.lib
                                          [ cpc_mode_rom_status.rel ]
/home/oscar/cpctelera/cpctelera/cpctelera.lib
                                          [ cpct_getScreenPtr_cbindings.rel ]

ASxxxx Linker V03.00 + NoICE + sdld,  page 7.

User Base Address Definitions

_CODE = 0x0040
_DATA = 0x0000

