;--------------------------------------------------------
; File Created by SDCC : free open source ANSI-C Compiler
; Version 3.6.8 #9946 (Linux)
;--------------------------------------------------------
	.module main
	.optsdcc -mz80
	
;--------------------------------------------------------
; Public variables in this module
;--------------------------------------------------------
	.globl _main
	.globl _Initialization
	.globl _DrawStars
	.globl _DrawSceneBalloons
	.globl _UpdateBalloons
	.globl _InitializeDrawing
	.globl _FlipBuffers
	.globl _InitializeVideoMemoryBuffers
	.globl _cpct_setPALColour
	.globl _cpct_setPalette
	.globl _cpct_setVideoMode
	.globl _cpct_setStackLocation
	.globl _cpct_disableFirmware
;--------------------------------------------------------
; special function registers
;--------------------------------------------------------
;--------------------------------------------------------
; ram data
;--------------------------------------------------------
	.area _DATA
;--------------------------------------------------------
; ram data
;--------------------------------------------------------
	.area _INITIALIZED
;--------------------------------------------------------
; absolute external ram data
;--------------------------------------------------------
	.area _DABS (ABS)
;--------------------------------------------------------
; global & static initialisations
;--------------------------------------------------------
	.area _HOME
	.area _GSINIT
	.area _GSFINAL
	.area _GSINIT
;--------------------------------------------------------
; Home
;--------------------------------------------------------
	.area _HOME
	.area _HOME
;--------------------------------------------------------
; code
;--------------------------------------------------------
	.area _CODE
;src/main.c:25: cpctm_createTransparentMaskTable(gMaskTable, MASK_TABLE_LOC, M0, 0);
;	---------------------------------
; Function dummy_cpct_transparentMaskTable0M0_container
; ---------------------------------
_dummy_cpct_transparentMaskTable0M0_container::
	.area _gMaskTable_ (ABS) 
	.org (0x8000 - 0x100) 
	 _gMaskTable::
	.db 0xFF, 0xAA, 0x55, 0x00, 0xAA, 0xAA, 0x00, 0x00 
	.db 0x55, 0x00, 0x55, 0x00, 0x00, 0x00, 0x00, 0x00 
	.db 0xAA, 0xAA, 0x00, 0x00, 0xAA, 0xAA, 0x00, 0x00 
	.db 0x00, 0x00, 0x00, 0x00, 0x00, 0x00, 0x00, 0x00 
	.db 0x55, 0x00, 0x55, 0x00, 0x00, 0x00, 0x00, 0x00 
	.db 0x55, 0x00, 0x55, 0x00, 0x00, 0x00, 0x00, 0x00 
	.db 0x00, 0x00, 0x00, 0x00, 0x00, 0x00, 0x00, 0x00 
	.db 0x00, 0x00, 0x00, 0x00, 0x00, 0x00, 0x00, 0x00 
	.db 0xAA, 0xAA, 0x00, 0x00, 0xAA, 0xAA, 0x00, 0x00 
	.db 0x00, 0x00, 0x00, 0x00, 0x00, 0x00, 0x00, 0x00 
	.db 0xAA, 0xAA, 0x00, 0x00, 0xAA, 0xAA, 0x00, 0x00 
	.db 0x00, 0x00, 0x00, 0x00, 0x00, 0x00, 0x00, 0x00 
	.db 0x00, 0x00, 0x00, 0x00, 0x00, 0x00, 0x00, 0x00 
	.db 0x00, 0x00, 0x00, 0x00, 0x00, 0x00, 0x00, 0x00 
	.db 0x00, 0x00, 0x00, 0x00, 0x00, 0x00, 0x00, 0x00 
	.db 0x00, 0x00, 0x00, 0x00, 0x00, 0x00, 0x00, 0x00 
	.db 0x55, 0x00, 0x55, 0x00, 0x00, 0x00, 0x00, 0x00 
	.db 0x55, 0x00, 0x55, 0x00, 0x00, 0x00, 0x00, 0x00 
	.db 0x00, 0x00, 0x00, 0x00, 0x00, 0x00, 0x00, 0x00 
	.db 0x00, 0x00, 0x00, 0x00, 0x00, 0x00, 0x00, 0x00 
	.db 0x55, 0x00, 0x55, 0x00, 0x00, 0x00, 0x00, 0x00 
	.db 0x55, 0x00, 0x55, 0x00, 0x00, 0x00, 0x00, 0x00 
	.db 0x00, 0x00, 0x00, 0x00, 0x00, 0x00, 0x00, 0x00 
	.db 0x00, 0x00, 0x00, 0x00, 0x00, 0x00, 0x00, 0x00 
	.db 0x00, 0x00, 0x00, 0x00, 0x00, 0x00, 0x00, 0x00 
	.db 0x00, 0x00, 0x00, 0x00, 0x00, 0x00, 0x00, 0x00 
	.db 0x00, 0x00, 0x00, 0x00, 0x00, 0x00, 0x00, 0x00 
	.db 0x00, 0x00, 0x00, 0x00, 0x00, 0x00, 0x00, 0x00 
	.db 0x00, 0x00, 0x00, 0x00, 0x00, 0x00, 0x00, 0x00 
	.db 0x00, 0x00, 0x00, 0x00, 0x00, 0x00, 0x00, 0x00 
	.db 0x00, 0x00, 0x00, 0x00, 0x00, 0x00, 0x00, 0x00 
	.db 0x00, 0x00, 0x00, 0x00, 0x00, 0x00, 0x00, 0x00 
	.area _CSEG (REL, CON) 
;src/main.c:32: void Initialization()
;	---------------------------------
; Function Initialization
; ---------------------------------
_Initialization::
;src/main.c:36: cpct_disableFirmware();
	call	_cpct_disableFirmware
;src/main.c:37: cpct_setVideoMode(0);            // Set mode 0
	ld	l, #0x00
	call	_cpct_setVideoMode
;src/main.c:38: cpct_setPalette(g_palette, 16);  // Set the palette
	ld	hl, #0x0010
	push	hl
	ld	hl, #_g_palette
	push	hl
	call	_cpct_setPalette
;src/main.c:39: cpct_setBorder(HW_SKY_BLUE);     // Set the border color with Hardware color
	ld	hl, #0x1710
	push	hl
	call	_cpct_setPALColour
;src/main.c:41: InitializeVideoMemoryBuffers();  // Initialize video buffers    
	call	_InitializeVideoMemoryBuffers
;src/main.c:42: InitializeDrawing();             // Initialize drawing elements
	call	_InitializeDrawing
	ret
;src/main.c:48: void main(void) 
;	---------------------------------
; Function main
; ---------------------------------
_main::
;src/main.c:53: cpct_setStackLocation((u8*)NEW_STACK_LOC);
	ld	hl, #0x7e00
	call	_cpct_setStackLocation
;src/main.c:56: Initialization();
	call	_Initialization
;src/main.c:59: while (TRUE)
00102$:
;src/main.c:61: UpdateBalloons();
	call	_UpdateBalloons
;src/main.c:62: DrawSceneBalloons();
	call	_DrawSceneBalloons
;src/main.c:63: DrawStars();
	call	_DrawStars
;src/main.c:67: FlipBuffers();        
	call	_FlipBuffers
	jr	00102$
	.area _CODE
	.area _INITIALIZER
	.area _CABS (ABS)
