ASxxxx Linker V03.00 + NoICE + sdld,  page 1.
Hexadecimal  [32-Bits]

Area                                    Addr        Size        Decimal Bytes (Attributes)
--------------------------------        ----        ----        ------- ----- ------------
.  .ABS.                            00000000    00000000 =           0. bytes (ABS,CON)

      Value  Global                              Global Defined In Module
      -----  --------------------------------   ------------------------
     00000000  .__.ABS.                           cpct_strings
     00000000  l__CABS                         
     00000000  l__DABS                         
     00000000  l__GSFINAL                      
     00000000  l__HOME                         
     00000000  l__INITIALIZED                  
     00000000  l__INITIALIZER                  
     00000000  s__CABS                         
     00000000  s__DABS                         
     00000008  l__GSINIT                       
     00000153  l__DATA                         
     00001954  l__CODE                         
     00004000  s__CODE                         
     00005954  s__DATA                         
     00005AA7  s__GSINIT                       
     00005AA7  s__HOME                         
     00005AA7  s__INITIALIZED                  
     00005AAF  s__GSFINAL                      
     00005AAF  s__INITIALIZER                  

ASxxxx Linker V03.00 + NoICE + sdld,  page 2.
Hexadecimal  [32-Bits]

Area                                    Addr        Size        Decimal Bytes (Attributes)
--------------------------------        ----        ----        ------- ----- ------------
_CODE                               00004000    00001954 =        6484. bytes (REL,CON)

      Value  Global                              Global Defined In Module
      -----  --------------------------------   ------------------------
     00004000  _g_building_3                      building_3
     000042D0  _g_building_2                      building_2
     000045A1  _g_building_1                      building_1
     00004B00  _g_palette                         ufo
     00004B10  _g_ufo_0                           ufo
     00004DB0  _g_ufo_1                           ufo
     00005050  _g_ufo_2                           ufo
     000052F0  _g_ufo_3                           ufo
     00005590  _Initialization                    main
     000055BF  _GetUfoSprite                      main
     000055E1  _DrawUFO                           main
     0000565F  _FillLine                          main
     00005682  _DrawSkyGradient                   main
     00005717  _DrawSky                           main
     0000574F  _DrawCity                          main
     0000579B  _InitCapture                       main
     000057AB  _DrawBackground                    main
     000057B4  _main                              main
     000057BF  _cpct_getScreenToSprite            cpct_sprites
     000057E6  _cpct_setPalette                   cpct_video
     000057FD  _cpct_setPALColour                 cpct_video
     00005809  _cpct_drawSprite                   cpct_sprites
     000058AE  _cpct_drawSpriteMasked             cpct_sprites
     000058DD  _cpct_waitVSYNC                    cpct_video
     000058DD  cpct_waitVSYNC_asm                 cpct_video
     000058E5  _cpct_setVideoMode                 cpct_video
     000058F3  _cpct_px2byteM0                    cpct_sprites
     0000590F  _cpct_memset                       cpct_memutils
     0000591D  _cpct_disableFirmware              cpct_firmware
     0000591D  _cpct_removeInterruptHandler       cpct_firmware
     0000591D  cpct_disableFirmware_asm           cpct_firmware
     0000591D  cpct_removeInterruptHandler_asm    cpct_firmware
     0000592D  _cpct_mode_rom_status              cpct_firmware
     0000592E  _cpct_getScreenPtr                 cpct_video
     00005944  dc_mode0_ct                        cpct_strings

ASxxxx Linker V03.00 + NoICE + sdld,  page 3.
Hexadecimal  [32-Bits]

Area                                    Addr        Size        Decimal Bytes (Attributes)
--------------------------------        ----        ----        ------- ----- ------------
_DATA                               00005954    00000153 =         339. bytes (REL,CON)

      Value  Global                              Global Defined In Module
      -----  --------------------------------   ------------------------
     00005954  _gScreenCapture                    main

ASxxxx Linker V03.00 + NoICE + sdld,  page 4.
Hexadecimal  [32-Bits]

Area                                    Addr        Size        Decimal Bytes (Attributes)
--------------------------------        ----        ----        ------- ----- ------------
_GSINIT                             00005AA7    00000008 =           8. bytes (REL,CON)

      Value  Global                              Global Defined In Module
      -----  --------------------------------   ------------------------
ASxxxx Linker V03.00 + NoICE + sdld,  page 5.

Files Linked                              [ module(s) ]

obj/sprites/building_3.rel                [ building_3 ]
obj/sprites/building_2.rel                [ building_2 ]
obj/sprites/building_1.rel                [ building_1 ]
obj/sprites/ufo.rel                       [ ufo ]
obj/main.rel                              [ main ]


Libraries Linked                          [ object file ]

/home/oscar/cpctelera/cpctelera/cpctelera.lib
                                          [ cpct_getScreenToSprite_cbindings ]
/home/oscar/cpctelera/cpctelera/cpctelera.lib
                                          [ cpct_setPalette_cbindings.rel ]
/home/oscar/cpctelera/cpctelera/cpctelera.lib
                                          [ cpct_setPALColour_cbindings.rel ]
/home/oscar/cpctelera/cpctelera/cpctelera.lib
                                          [ cpct_drawSprite_cbindings.rel ]
/home/oscar/cpctelera/cpctelera/cpctelera.lib
                                          [ cpct_drawSpriteMasked_cbindings. ]
/home/oscar/cpctelera/cpctelera/cpctelera.lib
                                          [ cpct_waitVSYNC.rel ]
/home/oscar/cpctelera/cpctelera/cpctelera.lib
                                          [ cpct_setVideoMode_cbindings.rel ]
/home/oscar/cpctelera/cpctelera/cpctelera.lib
                                          [ cpct_px2byteM0_cbindings.rel ]
/home/oscar/cpctelera/cpctelera/cpctelera.lib
                                          [ cpct_memset_cbinding.rel ]
/home/oscar/cpctelera/cpctelera/cpctelera.lib
                                          [ cpct_removeInterruptHandler.rel ]
/home/oscar/cpctelera/cpctelera/cpctelera.lib
                                          [ cpc_mode_rom_status.rel ]
/home/oscar/cpctelera/cpctelera/cpctelera.lib
                                          [ cpct_getScreenPtr_cbindings.rel ]
/home/oscar/cpctelera/cpctelera/cpctelera.lib
                                          [ cpct_dc_mode0_ct.rel ]

ASxxxx Linker V03.00 + NoICE + sdld,  page 6.

User Base Address Definitions

_CODE = 0x4000
_DATA = 0x0000

